Archive member included because of file (symbol)

board/spreadtrum/sp7731gea/libsp7731gea.o(openphone.o)
                              arch/arm/lib/libarm.o (board_init)
board/spreadtrum/sp7731gea/libsp7731gea.o(sprd_kp.o)
                              arch/arm/lib/libarm.o (board_keypad_init)
board/spreadtrum/sp7731gea/libsp7731gea.o(pinmap-sp8830.o)
                              board/spreadtrum/sp7731gea/libsp7731gea.o(openphone.o) (pin_init)
board/spreadtrum/sp7731gea/libsp7731gea.o(ldo_sleep.o)
                              board/spreadtrum/sp7731gea/libsp7731gea.o(openphone.o) (init_ldo_sleep_gr)
arch/arm/cpu/armv7/sc8830/libsc8830.o(mmu_asm.o)
                              property/libproperty.o (MMU_InvalideICACHEALL)
arch/arm/cpu/armv7/sc8830/libsc8830.o(timer.o)
                              arch/arm/lib/libarm.o (timer_init)
arch/arm/cpu/armv7/sc8830/libsc8830.o(reset.o)
                              arch/arm/lib/libarm.o (reset_cpu)
arch/arm/cpu/armv7/sc8830/libsc8830.o(ldo.o)
                              drivers/mmc/libmmc.o (LDO_TurnOnLDO)
arch/arm/cpu/armv7/sc8830/libsc8830.o(chg_phy.o)
                              property/libproperty.o (CHGMNG_AdcvalueToVoltage)
arch/arm/cpu/armv7/sc8830/libsc8830.o(mmu.o)
                              arch/arm/lib/libarm.o (MMU_Init)
arch/arm/cpu/armv7/sc8830/libsc8830.o(adc.o)
                              property/libproperty.o (ADC_Init)
arch/arm/cpu/armv7/sc8830/libsc8830.o(rtc-sprd.o)
                              arch/arm/cpu/armv7/sc8830/libsc8830.o(reset.o) (rtc_clean_all_int)
arch/arm/cpu/armv7/sc8830/libsc8830.o(sec_boot.o)
                              drivers/usb/gadget/libusb_gadget.o (secureboot_enabled)
arch/arm/cpu/armv7/sc8830/libsc8830.o(glb.o)
                              drivers/sound/codec/libcodec.o (sci_glb_write)
arch/arm/cpu/armv7/sc8830/libsc8830.o(adi.o)
                              drivers/sound/codec/libcodec.o (sci_adi_read)
arch/arm/cpu/armv7/sc8830/libsc8830.o(gpio.o)
                              drivers/mmc/libmmc.o (sprd_gpio_direction_output)
arch/arm/cpu/armv7/sc8830/libsc8830.o(gpio_phy.o)
                              arch/arm/cpu/armv7/sc8830/libsc8830.o(gpio.o) (gpio_get_section_table)
arch/arm/cpu/armv7/sc8830/libsc8830.o(check_reboot.o)
                              property/libproperty.o (check_reboot_mode)
arch/arm/cpu/armv7/sc8830/libsc8830.o(eic.o)
                              arch/arm/cpu/armv7/sc8830/libsc8830.o(check_reboot.o) (sprd_eic_get)
arch/arm/cpu/armv7/sc8830/libsc8830.o(vibrator_sc2713.o)
                              property/libproperty.o (set_vibrator)
arch/arm/cpu/armv7/sc8830/libsc8830.o(otp-helper.o)
                              arch/arm/cpu/armv7/sc8830/libsc8830.o(chg_phy.o) (sci_efuse_calibration_get)
arch/arm/cpu/armv7/sc8830/libsc8830.o(efuse.o)
                              arch/arm/cpu/armv7/sc8830/libsc8830.o(otp-helper.o) (__ddie_efuse_block_dump)
arch/arm/cpu/armv7/sc8830/libsc8830.o(watchdog.o)
                              arch/arm/cpu/armv7/sc8830/libsc8830.o(reset.o) (start_watchdog)
arch/arm/cpu/armv7/sc8830/libsc8830.o(watchdog_phy_v3.o)
                              arch/arm/cpu/armv7/sc8830/libsc8830.o(watchdog.o) (WDG_ClockOn)
arch/arm/cpu/armv7/sc8830/libsc8830.o(watchdog_hal.o)
                              arch/arm/cpu/armv7/sc8830/libsc8830.o(watchdog.o) (WDG_TimerStop)
arch/arm/cpu/armv7/sc8830/libsc8830.o(chip_cfg.o)
                              nand_fdl/common/src/libfdlcommon.o (FDL_GetBootMode)
arch/arm/cpu/armv7/sc8830/libsc8830.o(chip_phy_x30g.o)
                              property/libproperty.o (CHIP_ResetMCU)
arch/arm/cpu/armv7/sc8830/libsc8830.o(Tshark_boot_cp.o)
                              property/libproperty.o (boot_cp0)
arch/arm/cpu/armv7/sc8830/libsc8830.o(misc.o)
                              arch/arm/cpu/armv7/sc8830/libsc8830.o(check_reboot.o) (is_7s_reset)
arch/arm/cpu/armv7/sc8830/libsc8830.o(dcdc_cal_sc2713s.o)
                              arch/arm/lib/libarm.o (DCDC_Cal_ArmCore)
/usr/lib/gcc/arm-linux-gnueabihf/4.6/libgcc.a(_udivsi3.o)
                              disk/libdisk.o (__aeabi_uidiv)
/usr/lib/gcc/arm-linux-gnueabihf/4.6/libgcc.a(_divsi3.o)
                              common/libcommon.o (__aeabi_idiv)
/usr/lib/gcc/arm-linux-gnueabihf/4.6/libgcc.a(_lshrdi3.o)
                              drivers/mtd/nand/libnand.o (__aeabi_llsr)
/usr/lib/gcc/arm-linux-gnueabihf/4.6/libgcc.a(_ashrdi3.o)
                              drivers/mtd/nand/libnand.o (__aeabi_lasr)
/usr/lib/gcc/arm-linux-gnueabihf/4.6/libgcc.a(_ashldi3.o)
                              drivers/mmc/libmmc.o (__aeabi_llsl)
/usr/lib/gcc/arm-linux-gnueabihf/4.6/libgcc.a(_dvmd_lnx.o)
                              /usr/lib/gcc/arm-linux-gnueabihf/4.6/libgcc.a(_udivsi3.o) (__aeabi_idiv0)

Memory Configuration

Name             Origin             Length             Attributes
*default*        0x0000000000000000 0xffffffffffffffff

Linker script and memory map

                0x0000000000000000                . = 0x0
                0x0000000000000000                . = ALIGN (0x4)

.text           0x000000008f800000    0x6faa8
 arch/arm/cpu/armv7/start.o(.text)
 .text          0x000000008f800000      0x460 arch/arm/cpu/armv7/start.o
                0x000000008f800000                _start
                0x000000008f800040                _end_vect
                0x000000008f800040                _TEXT_BASE
                0x000000008f800044                _bss_start_ofs
                0x000000008f800048                _bss_end_ofs
                0x000000008f80004c                IRQ_STACK_START_IN
                0x000000008f80006c                relocate_code
 *(.text)
 .text          0x000000008f800460       0x84 arch/arm/cpu/armv7/libarmv7.o
                0x000000008f800460                cleanup_before_linux
                0x000000008f800484                sdelay
                0x000000008f800490                sr32
                0x000000008f8004b0                wait_on_value
 .text          0x000000008f8004e4      0x960 arch/arm/lib/libarm.o
                0x000000008f800554                coloured_LED_init
                0x000000008f800554                __coloured_LED_init
                0x000000008f800558                red_LED_on
                0x000000008f800558                __red_LED_on
                0x000000008f80055c                __red_LED_off
                0x000000008f80055c                red_LED_off
                0x000000008f800560                green_LED_on
                0x000000008f800560                __green_LED_on
                0x000000008f800564                __green_LED_off
                0x000000008f800564                green_LED_off
                0x000000008f800568                __yellow_LED_on
                0x000000008f800568                yellow_LED_on
                0x000000008f80056c                __yellow_LED_off
                0x000000008f80056c                yellow_LED_off
                0x000000008f800570                blue_LED_on
                0x000000008f800570                __blue_LED_on
                0x000000008f800574                blue_LED_off
                0x000000008f800574                __blue_LED_off
                0x000000008f800578                __dram_init_banksize
                0x000000008f800578                dram_init_banksize
                0x000000008f800594                board_init_r
                0x000000008f80073c                hang
                0x000000008f800750                board_init_f
                0x000000008f800860                arch_lmb_reserve
                0x000000008f800884                do_bootm_linux
                0x000000008f800a38                flush_cache
                0x000000008f800b60                icache_enable
                0x000000008f800b68                icache_disable
                0x000000008f800b70                icache_status
                0x000000008f800b7c                dcache_enable
                0x000000008f800b84                dcache_disable
                0x000000008f800b8c                dcache_status
                0x000000008f800b98                interrupt_init
                0x000000008f800bb4                enable_interrupts
                0x000000008f800bb8                disable_interrupts
                0x000000008f800bc0                bad_mode
                0x000000008f800bdc                show_regs
                0x000000008f800d1c                do_undefined_instruction
                0x000000008f800d40                do_software_interrupt
                0x000000008f800d64                do_prefetch_abort
                0x000000008f800d88                do_data_abort
                0x000000008f800dac                do_not_used
                0x000000008f800dd0                do_fiq
                0x000000008f800df4                do_irq
                0x000000008f800e18                do_reset
 .text          0x000000008f800e44     0xcf60 common/libcommon.o
                0x000000008f800e5c                do_bdinfo
                0x000000008f800f2c                do_go_exec
                0x000000008f800f44                do_go
                0x000000008f8010a8                do_bootd
                0x000000008f801194                do_iminfo
                0x000000008f801748                arch_preboot_os
                0x000000008f801748                __arch_preboot_os
                0x000000008f80174c                do_bootm_subcommand
                0x000000008f801990                do_bootm
                0x000000008f801c30                do_coninfo
                0x000000008f801ce8                do_echo
                0x000000008f801d68                do_ext4_load
                0x000000008f801d70                do_ext4_ls
                0x000000008f801d78                do_ext4_write
                0x000000008f801d80                do_fat_fsinfo
                0x000000008f801f94                do_fat_ls
                0x000000008f80209c                do_fat_fsload
                0x000000008f80221c                do_help
                0x000000008f8022d0                binary_test
                0x000000008f8024bc                do_itest
                0x000000008f8026a8                send_pad
                0x000000008f8026d4                ktrans
                0x000000008f8026f4                chk1
                0x000000008f80271c                s1_sendpacket
                0x000000008f802740                send_ack
                0x000000008f80279c                send_nack
                0x000000008f8027f8                k_data_init
                0x000000008f802818                k_data_save
                0x000000008f80283c                k_data_restore
                0x000000008f802860                k_data_char
                0x000000008f8028b0                handle_send_packet
                0x000000008f802a70                do_load_serial_bin
                0x000000008f802ec0                do_mem_base
                0x000000008f802f00                do_mem_mtest
                0x000000008f8030ac                do_mem_loop
                0x000000008f8031a0                do_mem_md
                0x000000008f803278                do_mem_crc
                0x000000008f80331c                do_mem_cp
                0x000000008f80340c                do_mem_cmp
                0x000000008f8035b4                do_mem_mw
                0x000000008f8037ac                do_mem_nm
                0x000000008f8037c4                do_mem_mm
                0x000000008f8037dc                do_sleep
                0x000000008f80385c                do_mmcinfo
                0x000000008f803990                do_mmcops
                0x000000008f8046e0                mtd_device_validate
                0x000000008f804710                device_find
                0x000000008f804c24                mtd_id_parse
                0x000000008f804d34                find_dev_and_part
                0x000000008f804eec                mtdparts_init
                0x000000008f8054d8                do_mtdparts
                0x000000008f805a5c                do_chpart
                0x000000008f805d78                do_nandboot
                0x000000008f806270                do_nand
                0x000000008f806f30                do_env_print
                0x000000008f806fb4                get_env_id
                0x000000008f806fc4                _do_env_set
                0x000000008f807304                do_env_set
                0x000000008f807320                setenv
                0x000000008f807574                envmatch
                0x000000008f8075d8                getenv_f
                0x000000008f807694                getenv
                0x000000008f8076ec                do_env_edit
                0x000000008f807750                source
                0x000000008f8078d0                do_source
                0x000000008f8087c0                do_ubifs_load
                0x000000008f808894                do_ubifs_ls
                0x000000008f8088f8                do_ubifs_mount
                0x000000008f808950                ubifs_is_mounted
                0x000000008f808960                cmd_ubifs_umount
                0x000000008f8089b4                do_ubifs_umount
                0x000000008f8089fc                do_version
                0x000000008f808a1c                do_imgextract
                0x000000008f808d04                do_ydump
                0x000000008f808d34                do_ymv
                0x000000008f808d4c                do_yrm
                0x000000008f808d60                do_yrmdir
                0x000000008f808d74                do_ymkdir
                0x000000008f808d88                do_ywrm
                0x000000008f808dd0                do_yrdm
                0x000000008f808dfc                do_ywr
                0x000000008f808e6c                do_yrd
                0x000000008f808ea0                do_yls
                0x000000008f808ec4                do_yumount
                0x000000008f808ed8                do_ymount
                0x000000008f808eec                do_yls_chk
                0x000000008f808f34                find_cmd_tbl
                0x000000008f808fd0                find_cmd
                0x000000008f808ff8                cmd_usage
                0x000000008f809054                _do_help
                0x000000008f8091d8                cmd_get_data_size
                0x000000008f8092cc                ram_puts
                0x000000008f809360                serial_printf
                0x000000008f8093ac                fgetc
                0x000000008f8093d8                ftstc
                0x000000008f809404                fputc
                0x000000008f80942c                fputs
                0x000000008f809454                fprintf
                0x000000008f8094a8                getc
                0x000000008f8094c0                tstc
                0x000000008f8094d8                putc
                0x000000008f809500                puts
                0x000000008f809540                printf
                0x000000008f80958c                vprintf
                0x000000008f8095c8                ctrlc
                0x000000008f809614                disable_ctrlc
                0x000000008f80962c                had_ctrlc
                0x000000008f80963c                clear_ctrlc
                0x000000008f809650                dbg
                0x000000008f80965c                search_device
                0x000000008f809684                console_assign
                0x000000008f8096c4                console_init_f
                0x000000008f8096f8                stdio_print_current_devices
                0x000000008f8097ac                console_init_r
                0x000000008f8098b8                sbrk
                0x000000008f809914                mem_malloc_init
                0x000000008f809938                malloc_trim
                0x000000008f809a08                free
                0x000000008f809c28                cfree
                0x000000008f809c2c                malloc
                0x000000008f80a1f8                calloc
                0x000000008f80a2cc                memalign
                0x000000008f80a3dc                pvalloc
                0x000000008f80a3f4                valloc
                0x000000008f80a400                realloc
                0x000000008f80a808                malloc_usable_size
                0x000000008f80a844                mallopt
                0x000000008f80a8b8                env_get_addr
                0x000000008f80a8dc                env_get_char_memory
                0x000000008f80a8ec                env_get_char
                0x000000008f80a91c                set_default_env
                0x000000008f80a9b4                env_import
                0x000000008f80aa7c                env_relocate
                0x000000008f80aa90                env_relocate_spec
                0x000000008f80aa94                env_get_char_spec
                0x000000008f80aaa0                env_init
                0x000000008f80aabc                get_version
                0x000000008f80aac4                jumptable_init
                0x000000008f80ac44                create_mtdpart_buffer
                0x000000008f80ad94                get_mtdparts
                0x000000008f80ada0                get_cal_enum_ms
                0x000000008f80ada8                get_cal_io_ms
                0x000000008f80adb0                get_bat_low_level
                0x000000008f80adb8                get_bat_low_level_chg
                0x000000008f80adc0                get_pwr_key_cnt
                0x000000008f80adc8                get_alarm_lead_set
                0x000000008f80ae04                image_check_hcrc
                0x000000008f80ae54                image_check_dcrc
                0x000000008f80ae90                image_multi_count
                0x000000008f80aeb4                image_multi_getimg
                0x000000008f80af38                getenv_yesno
                0x000000008f80af60                getenv_bootm_low
                0x000000008f80af90                getenv_bootm_size
                0x000000008f80afec                memmove_wd
                0x000000008f80b044                genimg_print_size
                0x000000008f80b074                get_table_entry_name
                0x000000008f80b0a0                genimg_get_os_name
                0x000000008f80b0b8                genimg_get_arch_name
                0x000000008f80b0d0                genimg_get_type_name
                0x000000008f80b0e8                genimg_get_comp_name
                0x000000008f80b100                image_print_contents
                0x000000008f80b278                get_table_entry_id
                0x000000008f80b2c4                genimg_get_os_id
                0x000000008f80b2dc                genimg_get_arch_id
                0x000000008f80b2f4                genimg_get_type_id
                0x000000008f80b30c                genimg_get_comp_id
                0x000000008f80b324                genimg_get_format
                0x000000008f80b338                genimg_get_image
                0x000000008f80b33c                genimg_has_config
                0x000000008f80b344                boot_get_ramdisk
                0x000000008f80b574                boot_ramdisk_high
                0x000000008f80b7e0                lcd_putc
                0x000000008f80b930                lcd_puts
                0x000000008f80b968                lcd_printf
                0x000000008f80b9ac                lcd_setmem
                0x000000008f80b9f0                lcd_setfgcolor
                0x000000008f80ba00                lcd_display_bitmap
                0x000000008f80bd78                drv_lcd_init
                0x000000008f80c024                __show_boot_progress
                0x000000008f80c024                show_boot_progress
                0x000000008f80c028                readline_into_buffer
                0x000000008f80c884                readline
                0x000000008f80c8a0                parse_line
                0x000000008f80c92c                run_command
                0x000000008f80ccfc                main_loop
                0x000000008f80ce88                do_run
                0x000000008f80cf04                get_ram_size
                0x000000008f80d078                srec_decode
                0x000000008f80d2d8                nulldev_putc
                0x000000008f80d2dc                nulldev_puts
                0x000000008f80d2e0                nulldev_input
                0x000000008f80d2e8                stdio_get_list
                0x000000008f80d2f4                stdio_get_by_name
                0x000000008f80d348                stdio_clone
                0x000000008f80d390                stdio_register
                0x000000008f80d3fc                stdio_init
                0x000000008f80d4fc                CYGACC_COMM_IF_GETC_TIMEOUT
                0x000000008f80d7e0                CYGACC_COMM_IF_PUTC
                0x000000008f80d7e8                parse_num
                0x000000008f80d904                xyzModem_stream_open
                0x000000008f80da50                xyzModem_stream_read
                0x000000008f80dca0                xyzModem_stream_close
                0x000000008f80dcf0                xyzModem_stream_terminate
                0x000000008f80dd84                xyzModem_error
 .text          0x000000008f80dda4     0x1e40 disk/libdisk.o
                0x000000008f80de68                get_dev
                0x000000008f80dec0                dev_print
                0x000000008f80e0d0                init_part
                0x000000008f80e104                get_partition_info
                0x000000008f80e140                get_partition_info_with_partnum
                0x000000008f80e194                get_all_partition_info
                0x000000008f80e1bc                get_partition_info_by_name
                0x000000008f80e1e4                print_part
                0x000000008f80e698                test_part_dos
                0x000000008f80e6ec                print_part_dos
                0x000000008f80e718                get_partition_info_dos
                0x000000008f80eb44                print_part_efi
                0x000000008f80ec74                get_partition_info_efi
                0x000000008f80edac                get_partition_info_by_name_efi
                0x000000008f80ef58                get_all_partition_info_efi
                0x000000008f80f104                get_partition_info_efi_with_partnum
                0x000000008f80f2ac                test_part_efi
                0x000000008f80f368                _gen_pmbr_part
                0x000000008f80f3cc                _gen_pmbr
                0x000000008f80f40c                _write_pmbr
                0x000000008f80f468                _gen_guid
                0x000000008f80f4bc                _gen_gpt_entry
                0x000000008f80f614                _parser_cfg
                0x000000008f80f684                _gen_gpt
                0x000000008f80f810                _gen_backup_gpt
                0x000000008f80f88c                _write_gpt
                0x000000008f80f940                _write_backup_gpt
                0x000000008f80fa2c                ueft_mount
                0x000000008f80fa34                ueft_unmount
                0x000000008f80fa3c                read_uefi_partition_table
                0x000000008f80fa44                write_uefi_partition_table
                0x000000008f80fae4                get_uefi_partition_info
                0x000000008f80faec                uefi_unit_test
                0x000000008f80faf4                _write_block
                0x000000008f80fb20                _read_block
                0x000000008f80fb4c                _get_device_info
                0x000000008f80fb68                _erase_block
                0x000000008f80fb8c                emmc_part_device_init
 .text          0x000000008f80fbe4     0x14d8 drivers/i2c/libi2c.o
                0x000000008f80fbe4                ms_delay
                0x000000008f80fbe8                CHIP_GetAPBClk
                0x000000008f80fbf4                I2C_Handler
                0x000000008f80fc2c                I2C_SetSCLclk
                0x000000008f80fc94                I2C_Init
                0x000000008f80fd08                I2C_GetSCLclk
                0x000000008f80fd38                I2C_WriteCmd
                0x000000008f80ff24                I2C_WriteData
                0x000000008f8100fc                I2C_ReadCmd
                0x000000008f8102ac                I2C_WriteCmdArr
                0x000000008f810574                I2C_ReadCmdArr
                0x000000008f810758                I2C_HAL_Open
                0x000000008f810840                I2C_HAL_Close
                0x000000008f8108b0                I2C_HAL_Read
                0x000000008f810a0c                I2C_HAL_Write
                0x000000008f810b40                I2C_HAL_Ioctl
 .text          0x000000008f8110bc     0x5524 drivers/mmc/libmmc.o
                0x000000008f8110c4                __board_mmc_getcd
                0x000000008f8110c4                board_mmc_getcd
                0x000000008f8110cc                mmc_send_cmd
                0x000000008f8110dc                mmc_set_blocklen
                0x000000008f811114                find_mmc_device
                0x000000008f8112e0                mmc_read_blocks
                0x000000008f811478                mmc_go_idle
                0x000000008f8114cc                sd_send_op_cond
                0x000000008f8115d0                mmc_send_op_cond
                0x000000008f811674                mmc_send_ext_csd
                0x000000008f8116c8                mmc_switch
                0x000000008f81170c                mmc_change_freq
                0x000000008f8117e4                sd_switch
                0x000000008f811854                sd_change_freq
                0x000000008f811a34                mmc_set_ios
                0x000000008f811a44                mmc_set_clock
                0x000000008f811a70                mmc_set_bus_width
                0x000000008f811a84                mmc_startup
                0x000000008f811ffc                mmc_send_if_cond
                0x000000008f812078                mmc_register
                0x000000008f812114                mmc_get_dev
                0x000000008f81213c                mmc_init
                0x000000008f8121cc                cpu_mmc_init
                0x000000008f8121d4                print_mmc_devices
                0x000000008f812238                mmc_initialize
                0x000000008f812284                mmc_legacy_init
                0x000000008f812300                mmc_sdcard_init
                0x000000008f812328                sdhci_dumpregs
                0x000000008f812494                mv_sdh_init
                0x000000008f812500                sdhci_set_ios
                0x000000008f812614                sdhci_init
                0x000000008f8127a0                sdhci_send_command
                0x000000008f812ba0                add_sdhci
                0x000000008f812df0                SDIO_Card_Pal_Open
                0x000000008f812e44                SDIO_Card_Pal_Pwr
                0x000000008f812f04                SDIO_Card_Pal_SetClk
                0x000000008f813004                SDIO_Card_Pal_SetBusWidth
                0x000000008f813038                SDIO_Card_Pal_SetSpeedMode
                0x000000008f8130a8                SDIO_Card_Pal_SetType
                0x000000008f8130b0                SDIO_Card_Pal_SendCmd
                0x000000008f8132fc                SDIO_Card_Pal_Close
                0x000000008f813324                SDIO_Card_Pal_DisSdClk
                0x000000008f813330                SDHOST_Delayus
                0x000000008f8133e0                SDHOST_GetPinState
                0x000000008f8133ec                SDHOST_Led
                0x000000008f81341c                SDHOST_Cfg_BusWidth
                0x000000008f813444                SDHOST_Cfg_SpeedMode
                0x000000008f8134b0                SDHOST_Cfg_Voltage
                0x000000008f8134b4                SDHOST_SD_POWER
                0x000000008f813518                SDHOST_BlkGapIntPosSet
                0x000000008f81351c                SDHOST_EnableReadWaitCtl
                0x000000008f813530                SDHOST_StopAtBlkGap
                0x000000008f813544                SDHOST_ClearBlkGap
                0x000000008f813558                SDHOST_BlkGapIntEn
                0x000000008f81356c                SDHOST_GetTransStat
                0x000000008f81357c                SDHOST_Continue
                0x000000008f81359c                SDHOST_internalClk_OnOff
                0x000000008f813610                SDHOST_SD_clk_OnOff
                0x000000008f81365c                SDHOST_SD_Clk_Freq_Set
                0x000000008f8136fc                SDHOST_SetDataTimeOutValue
                0x000000008f813750                SDHOST_RST
                0x000000008f813858                SDHOST_SetDataParam
                0x000000008f813950                SDHOST_GetDataParam
                0x000000008f81397c                SDHOST_SetDmaAddr
                0x000000008f813988                SDHOST_GetDmaAddr
                0x000000008f813994                SDHOST_SetCmdArg
                0x000000008f8139a0                SDHOST_SetCmd
                0x000000008f813b14                SDHOST_GetRspFromBuf
                0x000000008f813c3c                SDHOST_NML_IntStatus_Clr
                0x000000008f813cf0                SDHOST_NML_IntStatus_En
                0x000000008f813e5c                SDHOST_NML_IntStatus_Dis
                0x000000008f813f2c                SDHOST_NML_IntSig_En
                0x000000008f814090                SDHOST_NML_IntSig_Dis
                0x000000008f81415c                SDHOST_GetNMLIntStatus
                0x000000008f8141e8                SDHOST_GetErrCode
                0x000000008f814274                SDHOST_SetErrCodeFilter
                0x000000008f81427c                _SDHOST_IrqHandle
                0x000000008f81433c                SDHOST_UnRegister
                0x000000008f814384                SDHOST_BaseClk_Set
                0x000000008f814480                SDHOST_Register
                0x000000008f8145f0                SDHOST_Slot_select
                0x000000008f81485c                CARD_SDIO_Open
                0x000000008f8148bc                CARD_SDIO_Close
                0x000000008f8148d8                CARD_SDIO_PwrCtl
                0x000000008f8148f0                SDCARD_SDIO_ReadCSD
                0x000000008f814b84                CARD_SDIO_ReadCID
                0x000000008f814c4c                CARD_SDIO_Select_CurPartition
                0x000000008f814ca4                CARD_SDIO_SetBlockLength
                0x000000008f814d18                CARD_SDIO_InitCard
                0x000000008f815148                SDSetBusWidth
                0x000000008f8151f8                SDCARD_SDIO_InitCard
                0x000000008f8156b8                CARD_SDIO_ReadSingleBlock
                0x000000008f81573c                CARD_SDIO_ReadMultiBlock
                0x000000008f8157f4                CARD_SDIO_WriteSingleBlock
                0x000000008f81587c                CARD_SDIO_WriteMultiBlock
                0x000000008f815934                CARD_SDIO_Erase
                0x000000008f815a40                CARD_SDIO_GetCapacity
                0x000000008f815a60                CARD_SDIO_BOOT_Enable
                0x000000008f815a68                Emmc_Init
                0x000000008f815a9c                SDCARD_Write
                0x000000008f815b50                SDCARD_Read
                0x000000008f815bf4                SDCARD_Init
                0x000000008f815c40                Emmc_Write
                0x000000008f815d14                Emmc_Read
                0x000000008f815de8                Emmc_Erase
                0x000000008f815ebc                Emmc_GetCapacity
                0x000000008f815f20                Emmc_DisSdClk
                0x000000008f815fc0                process_raw_chunk
                0x000000008f816094                process_fill_chunk
                0x000000008f81615c                process_skip_chunk
                0x000000008f81617c                process_crc32_chunk
                0x000000008f8161dc                write_simg2emmc
                0x000000008f8165ac                sparse_crc32
 .text          0x000000008f8165e0     0x10d0 drivers/mtd/libmtd.o
                0x000000008f8165e0                add_mtd_device
                0x000000008f816650                del_mtd_device
                0x000000008f8166a0                get_mtd_device
                0x000000008f81671c                get_mtd_device_nm
                0x000000008f816790                put_mtd_device
                0x000000008f816d8c                mtd_erase_callback
                0x000000008f816dfc                del_mtd_partitions
                0x000000008f816e84                add_mtd_partitions
                0x000000008f8174d4                sprd_nand_write_spl
 .text          0x000000008f8176b0     0x74cc drivers/mtd/nand/libnand.o
                0x000000008f8176b0                nand_init
                0x000000008f8191a8                nand_wait_ready
                0x000000008f819448                nand_do_read_ops
                0x000000008f819b88                nand_do_write_ops
                0x000000008f819ec8                nand_do_write_oob
                0x000000008f81a204                nand_erase_nand
                0x000000008f81a59c                nand_scan_ident
                0x000000008f81aba0                nand_scan_tail
                0x000000008f81b0f4                nand_scan
                0x000000008f81b114                nand_release
                0x000000008f81c06c                nand_update_bbt
                0x000000008f81c328                nand_scan_bbt
                0x000000008f81c7d4                nand_default_bbt
                0x000000008f81c888                nand_isbad_bbt
                0x000000008f81c8dc                nand_calculate_ecc
                0x000000008f81c9cc                nand_correct_data
                0x000000008f81cb80                nand_erase_opts
                0x000000008f81cea8                nand_write_skip_bad
                0x000000008f81d06c                nand_read_skip_bad
                0x000000008f81d24c                nand_read_offset_ret
                0x000000008f81e190                SprdGetNandParam
                0x000000008f81e420                ecc_mode_convert
                0x000000008f81e440                nand_hardware_config
                0x000000008f81e76c                sprd_ecc_ctrl
                0x000000008f81e7e8                sprd_ecc_encode
                0x000000008f81e8a8                board_nand_init
                0x000000008f81ea28                McuReadNandType
                0x000000008f81ea2c                nand_scan_patition
                0x000000008f81eb44                nand_scan_block
 .text          0x000000008f81eb7c     0x81e8 drivers/mtd/ubi/libubi.o
                0x000000008f81ec58                ubi_get_device
                0x000000008f81ec78                ubi_put_device
                0x000000008f81ec88                ubi_get_by_major
                0x000000008f81ecd4                ubi_major2num
                0x000000008f81ed18                ubi_autoresize
                0x000000008f81ed1c                ubi_attach_mtd_dev
                0x000000008f81f3e0                ubi_detach_mtd_dev
                0x000000008f81f4d8                ubi_init
                0x000000008f81f638                ubi_exit
                0x000000008f81f67c                ubi_mtd_param_parse
                0x000000008f81fe58                ubi_change_vtbl_record
                0x000000008f81ff24                ubi_read_volume_table
                0x000000008f82074c                ubi_create_volume
                0x000000008f820c24                ubi_remove_volume
                0x000000008f820d54                ubi_resize_volume
                0x000000008f820fd0                ubi_add_volume
                0x000000008f82102c                ubi_free_volume
                0x000000008f8211fc                ubi_start_update
                0x000000008f821380                ubi_start_leb_change
                0x000000008f821464                ubi_more_update_data
                0x000000008f8216d0                ubi_more_leb_change_data
                0x000000008f8217fc                ubi_get_device_info
                0x000000008f821858                ubi_get_volume_info
                0x000000008f8218cc                ubi_close_volume
                0x000000008f821930                ubi_open_volume
                0x000000008f821ac8                ubi_open_volume_nm
                0x000000008f821ba0                ubi_leb_read
                0x000000008f821cd0                ubi_leb_write
                0x000000008f821dc8                ubi_leb_change
                0x000000008f821ea8                ubi_leb_erase
                0x000000008f821f2c                ubi_leb_unmap
                0x000000008f821f98                ubi_leb_map
                0x000000008f82203c                ubi_is_mapped
                0x000000008f8222ac                ubi_eba_unmap_leb
                0x000000008f82232c                ubi_eba_read_leb
                0x000000008f822578                ubi_eba_write_leb
                0x000000008f822b78                ubi_eba_write_leb_st
                0x000000008f822f08                ubi_eba_atomic_leb_change
                0x000000008f8232a4                ubi_eba_copy_leb
                0x000000008f823640                ubi_eba_init_scan
                0x000000008f823880                ubi_eba_close
                0x000000008f8239a0                ubi_io_read
                0x000000008f823aa0                ubi_io_write
                0x000000008f823b40                ubi_io_sync_erase
                0x000000008f823d14                ubi_io_is_bad
                0x000000008f823d6c                ubi_io_mark_bad
                0x000000008f823de8                ubi_io_read_ec_hdr
                0x000000008f8240b8                ubi_io_write_ec_hdr
                0x000000008f824188                ubi_io_read_vid_hdr
                0x000000008f824530                ubi_io_write_vid_hdr
                0x000000008f825078                ubi_wl_get_peb
                0x000000008f8251f8                ubi_wl_put_peb
                0x000000008f8252e4                ubi_wl_scrub_peb
                0x000000008f8253bc                ubi_wl_flush
                0x000000008f825408                ubi_thread
                0x000000008f8254b0                ubi_wl_init_scan
                0x000000008f82577c                ubi_wl_close
                0x000000008f825a14                ubi_scan_add_used
                0x000000008f826158                ubi_scan_find_sv
                0x000000008f826188                ubi_scan_find_seb
                0x000000008f8261b8                ubi_scan_rm_volume
                0x000000008f826220                ubi_scan_erase_peb
                0x000000008f8262ec                ubi_scan_get_free_peb
                0x000000008f8263bc                ubi_scan_destroy_si
                0x000000008f826568                ubi_scan
                0x000000008f826b78                crc32_le
                0x000000008f826c5c                ubi_calc_data_len
                0x000000008f826c8c                ubi_check_volume
                0x000000008f826d3c                ubi_calculate_reserved
 .text          0x000000008f826d64        0x0 drivers/pcmcia/libpcmcia.o
 .text          0x000000008f826d64        0x0 drivers/rtc/librtc.o
 .text          0x000000008f826d64      0x2dc drivers/serial/libserial.o
                0x000000008f826f50                serial_setbrg
                0x000000008f826f64                serial_getc
                0x000000008f826f78                serial_putc
                0x000000008f826fb8                serial_tstc
                0x000000008f826fdc                serial_puts
                0x000000008f827010                serial_init
 .text          0x000000008f827040     0x1ddc drivers/sound/codec/libcodec.o
                0x000000008f8282b8                sprd_codec_digital_loop
                0x000000008f828314                sprd_inter_speaker_pa
                0x000000008f828440                sprd_inter_headphone_pa
                0x000000008f82856c                sprd_codec_mic_bias_control
                0x000000008f8285bc                sprd_codec_auxmic_bias_control
                0x000000008f82860c                sprd_codec_headmic_bias_control
                0x000000008f82865c                dacl_digital_switch
                0x000000008f8286dc                dacr_digital_switch
                0x000000008f82875c                hp_switch
                0x000000008f8287f8                spkl_switch
                0x000000008f82885c                spkr_switch
                0x000000008f8288c0                ear_switch
                0x000000008f828914                adcl_digital_switch
                0x000000008f828994                adcr_digital_switch
                0x000000008f828a14                adcl_switch
                0x000000008f828a50                adcr_switch
                0x000000008f828a8c                pga_enable
                0x000000008f828b60                mic_bias_enable
                0x000000008f828c20                mixer_enable
                0x000000008f828c94                mixer_get
                0x000000008f828cac                mixer_set
                0x000000008f828d2c                sprd_codec_pcm_set_sample_rate
                0x000000008f828da8                sprd_codec_init
                0x000000008f828e18                sprd_codec_exit
 .text          0x000000008f828e1c      0x9e8 drivers/sound/dai/libdai.o
                0x000000008f829474                vbc_adc_sel_iis
                0x000000008f829494                vbc_adc23_sel_iis
                0x000000008f8294b4                vbc_dac0_fm_mixer
                0x000000008f8294d4                vbc_dac1_fm_mixer
                0x000000008f8294f4                vbc_startup
                0x000000008f829664                vbc_shutdown
                0x000000008f829728                vbc_trigger
                0x000000008f8297dc                vbc_init
                0x000000008f829800                vbc_exit
 .text          0x000000008f829804      0xbb8 drivers/sound/libsound.o
                0x000000008f829804                snd_reg_read
                0x000000008f829828                do_reg_read
                0x000000008f829900                snd_reg_write
                0x000000008f82994c                do_reg_write
                0x000000008f8299e4                snd_reg_wirte_f
                0x000000008f8299ec                sound_init
                0x000000008f82a038                do_audio_iis_fm
                0x000000008f82a2d0                do_audio_codec
                0x000000008f82a3b4                do_func
 .text          0x000000008f82a3bc      0x308 drivers/spi/libspi.o
                0x000000008f82a3bc                SPI_Enable
                0x000000008f82a3c0                SPI_Reset
                0x000000008f82a3c4                SPI_ClkSetting
                0x000000008f82a3c8                SPI_SetCsLow
                0x000000008f82a3fc                SPI_SetCd
                0x000000008f82a41c                SPI_SetSpiMode
                0x000000008f82a438                SPI_SetDatawidth
                0x000000008f82a464                SPI_SetTxLen
                0x000000008f82a4b0                SPI_SetRxLen
                0x000000008f82a524                SPI_TxReq
                0x000000008f82a53c                SPI_RxReq
                0x000000008f82a554                SPI_EnableDMA
                0x000000008f82a58c                SPI_Init
                0x000000008f82a5e8                SPI_WaitTxFinish
                0x000000008f82a61c                SPI_WriteData
                0x000000008f82a648                SPI_ReadData
 .text          0x000000008f82a6c4     0xa0c0 drivers/usb/gadget/dwc_otg/libdwc_otg.o
                0x000000008f82a6c4                dwc_otg_driver_init
                0x000000008f82a8b0                dwc_otg_driver_cleanup
                0x000000008f82abc8                usb_in_cal
                0x000000008f82abe4                dwc_otg_cil_remove
                0x000000008f82ac4c                dwc_otg_enable_global_interrupts
                0x000000008f82ac60                dwc_otg_disable_global_interrupts
                0x000000008f82ac74                dwc_otg_enable_device_interrupts
                0x000000008f82acd0                dwc_otg_enable_host_interrupts
                0x000000008f82ad18                dwc_otg_disable_host_interrupts
                0x000000008f82ad30                dwc_otg_hc_init
                0x000000008f82af38                dwc_otg_hc_halt
                0x000000008f82b04c                dwc_otg_hc_cleanup
                0x000000008f82b084                dwc_otg_hc_do_ping
                0x000000008f82b0c4                dwc_otg_hc_write_packet
                0x000000008f82b180                dwc_otg_hc_continue_transfer
                0x000000008f82b278                dwc_otg_hc_start_transfer
                0x000000008f82b594                dwc_otg_get_frame_number
                0x000000008f82b5b0                dwc_otg_read_setup_packet
                0x000000008f82b5d8                dwc_otg_ep0_activate
                0x000000008f82b64c                dwc_otg_ep_activate
                0x000000008f82b760                dwc_otg_ep_deactivate
                0x000000008f82b82c                dwc_otg_ep_start_transfer
                0x000000008f82bb04                dwc_otg_ep_start_zl_transfer
                0x000000008f82bc80                dwc_otg_ep0_start_transfer
                0x000000008f82bf1c                dwc_otg_ep0_continue_transfer
                0x000000008f82c1c4                dwc_otg_ep_write_packet
                0x000000008f82c298                dwc_otg_ep_set_stall
                0x000000008f82c300                dwc_otg_ep_clear_stall
                0x000000008f82c358                dwc_otg_read_packet
                0x000000008f82c390                dwc_otg_dump_dev_registers
                0x000000008f82c394                dwc_otg_dump_spram
                0x000000008f82c398                dwc_otg_dump_host_registers
                0x000000008f82c39c                dwc_otg_dump_global_registers
                0x000000008f82c3a0                dwc_otg_flush_tx_fifo
                0x000000008f82c454                dwc_otg_flush_rx_fifo
                0x000000008f82c4ec                dwc_otg_core_host_init
                0x000000008f82c708                dwc_otg_core_dev_init
                0x000000008f82cb58                dwc_otg_core_reset
                0x000000008f82cc4c                dwc_otg_is_device_mode
                0x000000008f82cc6c                dwc_otg_is_host_mode
                0x000000008f82cc84                dwc_otg_core_init
                0x000000008f82d0cc                dwc_otg_cil_register_hcd_callbacks
                0x000000008f82d0d8                dwc_otg_cil_register_pcd_callbacks
                0x000000008f82d0e4                dwc_otg_is_dma_enable
                0x000000008f82d0ec                dwc_otg_set_param_otg_cap
                0x000000008f82d204                dwc_otg_get_param_otg_cap
                0x000000008f82d210                dwc_otg_set_param_opt
                0x000000008f82d254                dwc_otg_get_param_opt
                0x000000008f82d260                dwc_otg_get_param_dma_enable
                0x000000008f82d26c                dwc_otg_set_param_dma_desc_enable
                0x000000008f82d338                dwc_otg_set_param_dma_enable
                0x000000008f82d3ec                dwc_otg_get_param_dma_desc_enable
                0x000000008f82d3f8                dwc_otg_set_param_host_support_fs_ls_low_power
                0x000000008f82d458                dwc_otg_get_param_host_support_fs_ls_low_power
                0x000000008f82d464                dwc_otg_set_param_enable_dynamic_fifo
                0x000000008f82d524                dwc_otg_get_param_enable_dynamic_fifo
                0x000000008f82d530                dwc_otg_set_param_data_fifo_size
                0x000000008f82d5e4                dwc_otg_get_param_data_fifo_size
                0x000000008f82d5f0                dwc_otg_set_param_dev_rx_fifo_size
                0x000000008f82d6b8                dwc_otg_get_param_dev_rx_fifo_size
                0x000000008f82d6c4                dwc_otg_set_param_dev_nperio_tx_fifo_size
                0x000000008f82d78c                dwc_otg_get_param_dev_nperio_tx_fifo_size
                0x000000008f82d798                dwc_otg_set_param_host_rx_fifo_size
                0x000000008f82d860                dwc_otg_get_param_host_rx_fifo_size
                0x000000008f82d86c                dwc_otg_set_param_host_nperio_tx_fifo_size
                0x000000008f82d934                dwc_otg_get_param_host_nperio_tx_fifo_size
                0x000000008f82d940                dwc_otg_set_param_host_perio_tx_fifo_size
                0x000000008f82da08                dwc_otg_get_param_host_perio_tx_fifo_size
                0x000000008f82da14                dwc_otg_set_param_max_transfer_size
                0x000000008f82daec                dwc_otg_get_param_max_transfer_size
                0x000000008f82daf8                dwc_otg_set_param_max_packet_count
                0x000000008f82dbc4                dwc_otg_get_param_max_packet_count
                0x000000008f82dbd0                dwc_otg_set_param_host_channels
                0x000000008f82dc90                dwc_otg_get_param_host_channels
                0x000000008f82dc9c                dwc_otg_set_param_dev_endpoints
                0x000000008f82dd54                dwc_otg_get_param_dev_endpoints
                0x000000008f82dd60                dwc_otg_set_param_phy_type
                0x000000008f82de80                dwc_otg_get_param_phy_type
                0x000000008f82de8c                dwc_otg_set_param_speed
                0x000000008f82df50                dwc_otg_get_param_speed
                0x000000008f82df5c                dwc_otg_set_param_host_ls_low_power_phy_clk
                0x000000008f82e020                dwc_otg_get_param_host_ls_low_power_phy_clk
                0x000000008f82e02c                dwc_otg_set_param_phy_ulpi_ddr
                0x000000008f82e08c                dwc_otg_get_param_phy_ulpi_ddr
                0x000000008f82e098                dwc_otg_set_param_phy_ulpi_ext_vbus
                0x000000008f82e0f8                dwc_otg_get_param_phy_ulpi_ext_vbus
                0x000000008f82e104                dwc_otg_set_param_phy_utmi_width
                0x000000008f82e170                dwc_otg_get_param_phy_utmi_width
                0x000000008f82e17c                dwc_otg_set_param_ulpi_fs_ls
                0x000000008f82e1dc                dwc_otg_get_param_ulpi_fs_ls
                0x000000008f82e1e8                dwc_otg_set_param_ts_dline
                0x000000008f82e248                dwc_otg_get_param_ts_dline
                0x000000008f82e254                dwc_otg_set_param_i2c_enable
                0x000000008f82e30c                dwc_otg_get_param_i2c_enable
                0x000000008f82e318                dwc_otg_set_param_dev_perio_tx_fifo_size
                0x000000008f82e3f4                dwc_otg_get_param_dev_perio_tx_fifo_size
                0x000000008f82e404                dwc_otg_set_param_en_multiple_tx_fifo
                0x000000008f82e4c4                dwc_otg_get_param_en_multiple_tx_fifo
                0x000000008f82e4d0                dwc_otg_set_param_dev_tx_fifo_size
                0x000000008f82e5ac                dwc_otg_get_param_dev_tx_fifo_size
                0x000000008f82e5bc                dwc_otg_set_param_thr_ctl
                0x000000008f82e688                dwc_otg_get_param_thr_ctl
                0x000000008f82e694                dwc_otg_set_param_lpm_enable
                0x000000008f82e758                dwc_otg_get_param_lpm_enable
                0x000000008f82e764                dwc_otg_set_param_tx_thr_length
                0x000000008f82e7c8                dwc_otg_get_param_tx_thr_length
                0x000000008f82e7d4                dwc_otg_set_param_rx_thr_length
                0x000000008f82e838                dwc_otg_get_param_rx_thr_length
                0x000000008f82e844                dwc_otg_set_param_dma_burst_size
                0x000000008f82e8b8                dwc_otg_get_param_dma_burst_size
                0x000000008f82e8c4                dwc_otg_set_param_pti_enable
                0x000000008f82e974                dwc_otg_get_param_pti_enable
                0x000000008f82e980                dwc_otg_set_param_mpi_enable
                0x000000008f82ea2c                dwc_otg_get_param_mpi_enable
                0x000000008f82ea38                dwc_otg_set_param_ic_usb_cap
                0x000000008f82eb00                dwc_otg_get_param_ic_usb_cap
                0x000000008f82eb0c                dwc_otg_set_param_ahb_thr_ratio
                0x000000008f82ebf8                dwc_otg_cil_init
                0x000000008f82efb0                dwc_otg_get_param_ahb_thr_ratio
                0x000000008f82efbc                dwc_otg_get_hnpstatus
                0x000000008f82efd0                dwc_otg_get_srpstatus
                0x000000008f82efe4                dwc_otg_set_hnpreq
                0x000000008f82f010                dwc_otg_get_gsnpsid
                0x000000008f82f018                dwc_otg_get_mode
                0x000000008f82f02c                dwc_otg_get_hnpcapable
                0x000000008f82f044                dwc_otg_set_hnpcapable
                0x000000008f82f078                dwc_otg_get_srpcapable
                0x000000008f82f090                dwc_otg_set_srpcapable
                0x000000008f82f0c4                dwc_otg_get_devspeed
                0x000000008f82f0dc                dwc_otg_set_devspeed
                0x000000008f82f110                dwc_otg_get_busconnected
                0x000000008f82f128                dwc_otg_get_enumspeed
                0x000000008f82f144                dwc_otg_get_prtpower
                0x000000008f82f15c                dwc_otg_set_prtpower
                0x000000008f82f188                dwc_otg_get_prtsuspend
                0x000000008f82f1a0                dwc_otg_set_prtsuspend
                0x000000008f82f1cc                dwc_otg_set_prtresume
                0x000000008f82f1f8                dwc_otg_get_remotewakesig
                0x000000008f82f214                dwc_otg_get_lpm_portsleepstatus
                0x000000008f82f22c                dwc_otg_get_lpm_remotewakeenabled
                0x000000008f82f244                dwc_otg_get_lpmresponse
                0x000000008f82f25c                dwc_otg_set_lpmresponse
                0x000000008f82f290                dwc_otg_get_hsic_connect
                0x000000008f82f2a8                dwc_otg_set_hsic_connect
                0x000000008f82f2dc                dwc_otg_get_inv_sel_hsic
                0x000000008f82f2f4                dwc_otg_set_inv_sel_hsic
                0x000000008f82f328                dwc_otg_get_gotgctl
                0x000000008f82f330                dwc_otg_set_gotgctl
                0x000000008f82f338                dwc_otg_get_gusbcfg
                0x000000008f82f344                dwc_otg_set_gusbcfg
                0x000000008f82f350                dwc_otg_get_grxfsiz
                0x000000008f82f35c                dwc_otg_set_grxfsiz
                0x000000008f82f368                dwc_otg_get_gnptxfsiz
                0x000000008f82f374                dwc_otg_set_gnptxfsiz
                0x000000008f82f380                dwc_otg_get_gpvndctl
                0x000000008f82f38c                dwc_otg_set_gpvndctl
                0x000000008f82f398                dwc_otg_get_ggpio
                0x000000008f82f3a4                dwc_otg_set_ggpio
                0x000000008f82f3b0                dwc_otg_get_hprt0
                0x000000008f82f3bc                dwc_otg_set_hprt0
                0x000000008f82f3c8                dwc_otg_get_guid
                0x000000008f82f3d4                dwc_otg_set_guid
                0x000000008f82f3e0                dwc_otg_get_hptxfsiz
                0x000000008f82f48c                dwc_otg_handle_mode_mismatch_intr
                0x000000008f82f50c                dwc_otg_handle_otg_intr
                0x000000008f82f74c                w_conn_id_status_change
                0x000000008f82f7f4                dwc_otg_handle_conn_id_status_change_intr
                0x000000008f82f828                dwc_otg_handle_session_req_intr
                0x000000008f82f8a4                w_wakeup_detected
                0x000000008f82f8f8                dwc_otg_handle_wakeup_detected_intr
                0x000000008f82f9c0                dwc_otg_handle_disconnect_intr
                0x000000008f82fa5c                dwc_otg_handle_usb_suspend_intr
                0x000000008f82fae8                dwc_otg_handle_common_intr
                0x000000008f83033c                udc_power_on
                0x000000008f83042c                udc_power_off
                0x000000008f830448                gadget_add_eps
                0x000000008f830580                pcd_init
                0x000000008f830664                usb_gadget_register_driver
                0x000000008f830718                usb_gadget_unregister_driver
                0x000000008f830770                pcd_remove
                0x000000008f8307d4                usb_gadget_handle_interrupts
                0x000000008f83093c                dwc_otg_request_done
                0x000000008f830a00                dwc_otg_request_nuke
                0x000000008f830a3c                dwc_otg_pcd_start
                0x000000008f830a44                dwc_otg_ep_alloc_desc_chain
                0x000000008f830a54                dwc_otg_ep_free_desc_chain
                0x000000008f830a6c                dwc_otg_pcd_init
                0x000000008f830f20                dwc_otg_pcd_remove
                0x000000008f830fec                dwc_otg_pcd_is_dualspeed
                0x000000008f83102c                dwc_otg_pcd_is_otg
                0x000000008f831054                dwc_otg_pcd_ep_enable
                0x000000008f831250                dwc_otg_pcd_ep_disable
                0x000000008f831358                dwc_otg_pcd_ep_queue
                0x000000008f83171c                dwc_otg_pcd_ep_dequeue
                0x000000008f83180c                dwc_otg_pcd_ep_halt
                0x000000008f8319e8                dwc_otg_pcd_rem_wkup_from_suspend
                0x000000008f831a88                dwc_otg_pcd_remote_wakeup
                0x000000008f831ab4                dwc_otg_pcd_start_srp_timer
                0x000000008f831acc                dwc_otg_pcd_initiate_srp
                0x000000008f831b4c                dwc_otg_pcd_wakeup
                0x000000008f831bc8                dwc_otg_pcd_get_frame_number
                0x000000008f831bd0                dwc_otg_pcd_is_lpm_enabled
                0x000000008f831be0                get_b_hnp_enable
                0x000000008f831bec                get_a_hnp_support
                0x000000008f831bf8                get_a_alt_hnp_support
                0x000000008f831c04                dwc_otg_pcd_get_rmwkup_enable
                0x000000008f8321a8                get_ep_by_addr
                0x000000008f832800                start_next_request
                0x000000008f833758                dwc_otg_pcd_handle_sof_intr
                0x000000008f833778                dwc_otg_pcd_handle_rx_status_q_level_intr
                0x000000008f8338a8                dwc_otg_pcd_handle_np_tx_fifo_empty_intr
                0x000000008f833aa8                dwc_otg_pcd_stop
                0x000000008f833ba8                dwc_otg_pcd_handle_i2c_intr
                0x000000008f833be8                dwc_otg_pcd_handle_early_suspend_intr
                0x000000008f833c08                dwc_otg_pcd_handle_usb_reset_intr
                0x000000008f833e00                dwc_otg_pcd_handle_enum_done_intr
                0x000000008f833f4c                dwc_otg_pcd_handle_isoc_out_packet_dropped_intr
                0x000000008f833f8c                dwc_otg_pcd_handle_end_periodic_frame_intr
                0x000000008f833fcc                dwc_otg_pcd_handle_ep_mismatch_intr
                0x000000008f833fe8                do_test_mode
                0x000000008f834068                dwc_otg_pcd_handle_incomplete_isoc_in_intr
                0x000000008f8340a8                dwc_otg_pcd_handle_incomplete_isoc_out_intr
                0x000000008f8340e8                dwc_otg_pcd_handle_in_nak_effective
                0x000000008f834170                dwc_otg_pcd_handle_out_nak_effective
                0x000000008f8341b0                dwc_otg_pcd_handle_intr
                0x000000008f83446c                DWC_MEMSET
                0x000000008f834470                DWC_MEMCPY
                0x000000008f834474                DWC_MEMMOVE
                0x000000008f834478                DWC_MEMCMP
                0x000000008f83447c                DWC_STRNCMP
                0x000000008f834480                DWC_STRCMP
                0x000000008f834484                DWC_STRLEN
                0x000000008f834488                DWC_STRCPY
                0x000000008f83448c                DWC_ATOI
                0x000000008f8344bc                DWC_ATOUI
                0x000000008f8344ec                DWC_IN_IRQ
                0x000000008f8344f4                DWC_VPRINTF
                0x000000008f8344f8                DWC_VSNPRINTF
                0x000000008f834510                DWC_PRINTF
                0x000000008f834534                DWC_SPRINTF
                0x000000008f834558                DWC_SNPRINTF
                0x000000008f83457c                __DWC_WARN
                0x000000008f8345a0                __DWC_ERROR
                0x000000008f8345c4                DWC_EXCEPTION
                0x000000008f834614                __DWC_DMA_ALLOC
                0x000000008f83461c                __DWC_DMA_FREE
                0x000000008f834620                __DWC_ALLOC
                0x000000008f834648                DWC_STRDUP
                0x000000008f83467c                __DWC_ALLOC_ATOMIC
                0x000000008f834680                __DWC_FREE
                0x000000008f834684                DWC_READ_REG32
                0x000000008f83468c                DWC_WRITE_REG32
                0x000000008f834694                DWC_MODIFY_REG32
                0x000000008f8346a8                DWC_WORKQ_WAIT_WORK_DONE
                0x000000008f8346b0                DWC_WORKQ_ALLOC
                0x000000008f8346b8                DWC_WORKQ_FREE
                0x000000008f8346bc                DWC_WORKQ_SCHEDULE
                0x000000008f8346c8                DWC_WORKQ_SCHEDULE_DELAYED
                0x000000008f8346cc                DWC_WORKQ_PENDING
                0x000000008f8346d4                DWC_SPINLOCK_ALLOC
                0x000000008f8346dc                DWC_SPINLOCK_FREE
                0x000000008f8346e0                DWC_SPINLOCK
                0x000000008f8346e4                DWC_SPINUNLOCK
                0x000000008f8346e8                DWC_SPINLOCK_IRQSAVE
                0x000000008f8346fc                DWC_SPINUNLOCK_IRQRESTORE
                0x000000008f834704                DWC_MUTEX_ALLOC
                0x000000008f83470c                DWC_MUTEX_FREE
                0x000000008f834710                DWC_MUTEX_LOCK
                0x000000008f834714                DWC_MUTEX_TRYLOCK
                0x000000008f83471c                DWC_MUTEX_UNLOCK
                0x000000008f834720                DWC_TIMER_ALLOC
                0x000000008f834728                DWC_TIMER_FREE
                0x000000008f83472c                DWC_TIMER_SCHEDULE
                0x000000008f834730                DWC_TIMER_CANCEL
                0x000000008f834734                DWC_TASK_ALLOC
                0x000000008f83473c                DWC_TASK_FREE
                0x000000008f834740                DWC_TASK_SCHEDULE
                0x000000008f834744                DWC_UDELAY
                0x000000008f834748                DWC_MDELAY
                0x000000008f834754                DWC_MSLEEP
                0x000000008f834758                DWC_TIME
                0x000000008f834760                DWC_WAITQ_ALLOC
                0x000000008f834768                DWC_WAITQ_FREE
                0x000000008f83476c                DWC_WAITQ_WAIT
                0x000000008f834774                DWC_WAITQ_WAIT_TIMEOUT
                0x000000008f83477c                DWC_WAITQ_TRIGGER
                0x000000008f834780                DWC_WAITQ_ABORT
 .text          0x000000008f834784     0x4a6c drivers/usb/gadget/libusb_gadget.o
                0x000000008f834c18                strlcpy
                0x000000008f834e58                usb_fastboot_initialize
                0x000000008f83506c                do_fastboot
                0x000000008f8351d0                get_end_write_pos
                0x000000008f8351e0                set_current_write_pos
                0x000000008f8351f0                move2goodblk
                0x000000008f8351f4                fastboot_register
                0x000000008f83523c                fastboot_publish
                0x000000008f835270                fastboot_ack
                0x000000008f835300                fastboot_fail
                0x000000008f835310                fastboot_okay
                0x000000008f83548c                cmd_powerdown
                0x000000008f8354a8                cmd_reboot_bootloader
                0x000000008f8354cc                cmd_reboot
                0x000000008f8354ec                cmd_continue
                0x000000008f835508                cmd_boot
                0x000000008f8356ec                cmd_erase
                0x000000008f83580c                fastboot_eMMCCheckSum
                0x000000008f835858                fastboot_splFillCheckData
                0x000000008f83588c                cmd_flash
                0x000000008f835c80                fastboot_init
                0x000000008f835eb4                usb_ep_autoconfig
                0x000000008f8360d8                usb_ep_autoconfig_reset
                0x000000008f836114                usb_descriptor_fillbuf
                0x000000008f836174                usb_gadget_config_buf
                0x000000008f836208                usb_copy_descriptors
                0x000000008f83628c                usb_find_endpoint
                0x000000008f8362b8                usb_gadget_get_string
                0x000000008f837a10                usb_function_set_enabled
                0x000000008f837a20                usb_composite_force_reset
                0x000000008f837a8c                usb_add_function
                0x000000008f837b68                usb_function_deactivate
                0x000000008f837d44                usb_function_activate
                0x000000008f837dac                usb_interface_id
                0x000000008f837dd0                usb_add_config
                0x000000008f837e8c                usb_string_id
                0x000000008f837eac                usb_composite_register
                0x000000008f837f2c                usb_composite_unregister
                0x000000008f837f4c                calibration_reset_composite
                0x000000008f837f60                acm_bind_config
                0x000000008f838070                obex_bind_config
                0x000000008f838178                gser_bind_config
                0x000000008f83828c                gs_alloc_req
                0x000000008f838380                gs_free_req
                0x000000008f8386f0                gs_open
                0x000000008f838788                gs_close
                0x000000008f83883c                gs_read
                0x000000008f838954                gs_write
                0x000000008f838a30                usb_wait_trans_done
                0x000000008f838a88                usb_is_trans_done
                0x000000008f838af4                usb_is_configured
                0x000000008f838b18                usb_is_port_open
                0x000000008f838b3c                gserial_setup
                0x000000008f838c1c                gserial_cleanup
                0x000000008f838d70                gserial_connect
                0x000000008f838e5c                gserial_disconnect
                0x000000008f83916c                gs_reset_usb_param
                0x000000008f839194                usb_serial_init
                0x000000008f8391d8                usb_serial_cleanup
 .text          0x000000008f8391f0     0x3290 drivers/video/sprdfb/dsi_1_21a/libsprdfb_dsi.o
                0x000000008f8391f0                mipi_dsih_open
                0x000000008f839470                mipi_dsih_close
                0x000000008f8394c8                mipi_dsih_allow_return_to_lp
                0x000000008f839554                mipi_dsih_dcs_cmd_lp_transmission
                0x000000008f8395d0                mipi_dsih_gen_cmd_lp_transmission
                0x000000008f83967c                mipi_dsih_enable_rx
                0x000000008f83968c                mipi_dsih_peripheral_ack
                0x000000008f8396d8                mipi_dsih_tear_effect_ack
                0x000000008f839724                mipi_dsih_eotp_rx
                0x000000008f839770                mipi_dsih_ecc_rx
                0x000000008f8397bc                mipi_dsih_eotp_tx
                0x000000008f8397ec                mipi_dsih_dpi_video
                0x000000008f839e34                mipi_dsih_cmd_mode
                0x000000008f839e70                mipi_dsih_video_mode
                0x000000008f839eac                mipi_dsih_active_mode
                0x000000008f839ee0                mipi_dsih_gen_wr_packet
                0x000000008f83a0cc                mipi_dsih_gen_wr_cmd
                0x000000008f83a0f8                mipi_dsih_dcs_wr_cmd
                0x000000008f83a138                mipi_dsih_gen_rd_packet
                0x000000008f83a328                mipi_dsih_gen_rd_cmd
                0x000000008f83a3b0                mipi_dsih_dcs_rd_cmd
                0x000000008f83a45c                mipi_dsih_dump_register_configuration
                0x000000008f83a564                mipi_dsih_write_register_configuration
                0x000000008f83a5c0                mipi_dsih_register_event
                0x000000008f83a660                mipi_dsih_unregister_event
                0x000000008f83a704                mipi_dsih_unregister_all_events
                0x000000008f83a770                mipi_dsih_event_handler
                0x000000008f83a804                mipi_dsih_reset_controller
                0x000000008f83a824                mipi_dsih_shutdown_controller
                0x000000008f83a830                mipi_dsih_reset_phy
                0x000000008f83a854                mipi_dsih_shutdown_phy
                0x000000008f83a864                mipi_dsih_edpi_video
                0x000000008f83ab38                mipi_dsih_presp_timeout_low_power_write
                0x000000008f83ab3c                mipi_dsih_presp_timeout_low_power_read
                0x000000008f83ab40                mipi_dsih_presp_timeout_high_speed_write
                0x000000008f83ab44                mipi_dsih_presp_timeout_high_speed_read
                0x000000008f83ab48                mipi_dsih_presp_timeout_bta
                0x000000008f83ab4c                mipi_dsih_check_dbi_fifos_state
                0x000000008f83aba0                mipi_dsih_check_ulpm_mode
                0x000000008f83abc4                mipi_dsih_dphy_open
                0x000000008f83ac14                mipi_dsih_dphy_write_word
                0x000000008f83ac30                mipi_dsih_dphy_test_data_in
                0x000000008f83ac3c                mipi_dsih_dphy_read_word
                0x000000008f83ac60                mipi_dsih_dphy_write_part
                0x000000008f83acac                mipi_dsih_dphy_test_en
                0x000000008f83accc                mipi_dsih_dphy_test_clear
                0x000000008f83acec                mipi_dsih_dphy_test_clock
                0x000000008f83ad08                mipi_dsih_dphy_write
                0x000000008f83ad8c                mipi_dsih_dphy_enable_hs_clk
                0x000000008f83adac                mipi_dsih_dphy_enable_nc_clk
                0x000000008f83adc8                mipi_dsih_dphy_no_of_lanes
                0x000000008f83ade8                mipi_dsih_dphy_stop_wait_time
                0x000000008f83ae04                mipi_dsih_dphy_force_pll
                0x000000008f83ae24                mipi_dsih_dphy_shutdown
                0x000000008f83ae44                mipi_dsih_dphy_reset
                0x000000008f83ae60                mipi_dsih_dphy_close
                0x000000008f83aec0                mipi_dsih_dphy_clock_en
                0x000000008f83aee0                mipi_dsih_dphy_configure
                0x000000008f83b320                mipi_dsih_dphy_status
                0x000000008f83b338                mipi_dsih_dphy_ulps_clk_lane
                0x000000008f83b430                mipi_dsih_dphy_escape_mode_trigger
                0x000000008f83b4f4                mipi_dsih_dphy_wakeup_pll
                0x000000008f83b55c                mipi_dsih_dphy_read_part
                0x000000008f83b57c                mipi_dsih_dphy_test_data_out
                0x000000008f83b598                mipi_dsih_dphy_calibration
                0x000000008f83b760                mipi_dsih_dphy_get_no_of_lanes
                0x000000008f83b77c                mipi_dsih_dphy_ulps_data_lanes
                0x000000008f83b884                mipi_dsih_dphy_get_force_pll
                0x000000008f83b894                mipi_dsih_write_word
                0x000000008f83b8a8                mipi_dsih_read_word
                0x000000008f83b8bc                mipi_dsih_write_part
                0x000000008f83b8fc                mipi_dsih_read_part
                0x000000008f83b91c                mipi_dsih_hal_get_version
                0x000000008f83b924                mipi_dsih_hal_power
                0x000000008f83b944                mipi_dsih_hal_get_power
                0x000000008f83b954                mipi_dsih_hal_tx_escape_division
                0x000000008f83b970                mipi_dsih_hal_dpi_video_vc
                0x000000008f83b990                mipi_dsih_hal_dpi_get_video_vc
                0x000000008f83b9ac                mipi_dsih_hal_dpi_color_coding
                0x000000008f83b9fc                mipi_dsih_hal_dpi_get_color_coding
                0x000000008f83ba0c                mipi_dsih_hal_dpi_get_color_depth
                0x000000008f83ba38                mipi_dsih_hal_dpi_get_color_config
                0x000000008f83ba68                mipi_dsih_hal_dpi_18_loosely_packet_en
                0x000000008f83ba88                mipi_dsih_hal_dpi_color_mode_pol
                0x000000008f83baa8                mipi_dsih_hal_dpi_shut_down_pol
                0x000000008f83bac8                mipi_dsih_hal_dpi_hsync_pol
                0x000000008f83bae8                mipi_dsih_hal_dpi_vsync_pol
                0x000000008f83bb04                mipi_dsih_hal_dpi_dataen_pol
                0x000000008f83bb24                mipi_dsih_hal_dpi_frame_ack_en
                0x000000008f83bb44                mipi_dsih_hal_dpi_null_packet_en
                0x000000008f83bb48                mipi_dsih_hal_dpi_multi_packet_en
                0x000000008f83bb4c                mipi_dsih_hal_dpi_lp_during_hfp
                0x000000008f83bb6c                mipi_dsih_hal_dpi_lp_during_hbp
                0x000000008f83bb8c                mipi_dsih_hal_dpi_lp_during_vactive
                0x000000008f83bbac                mipi_dsih_hal_dpi_lp_during_vfp
                0x000000008f83bbcc                mipi_dsih_hal_dpi_lp_during_vbp
                0x000000008f83bbec                mipi_dsih_hal_dpi_lp_during_vsync
                0x000000008f83bc0c                mipi_dsih_hal_dpi_video_mode_type
                0x000000008f83bc58                mipi_dsih_hal_dpi_video_mode_en
                0x000000008f83bc7c                mipi_dsih_hal_dpi_is_video_mode
                0x000000008f83bc9c                mipi_dsih_hal_dpi_null_packet_size
                0x000000008f83bccc                mipi_dsih_hal_dpi_chunks_no
                0x000000008f83bcfc                mipi_dsih_hal_dpi_video_packet_size
                0x000000008f83bd2c                mipi_dsih_hal_edpi_enable
                0x000000008f83bd30                mipi_dsih_hal_edpi_max_allowed_size
                0x000000008f83bd50                mipi_dsih_hal_tear_effect_ack_en
                0x000000008f83bd70                mipi_dsih_hal_cmd_ack_en
                0x000000008f83bd8c                mipi_dsih_hal_dcs_wr_tx_type
                0x000000008f83bde4                mipi_dsih_hal_dcs_rd_tx_type
                0x000000008f83be2c                mipi_dsih_hal_max_rd_packet_size_type
                0x000000008f83be50                mipi_dsih_hal_gen_wr_tx_type
                0x000000008f83bea4                mipi_dsih_hal_gen_rd_tx_type
                0x000000008f83bf20                mipi_dsih_hal_max_rd_size_tx_type
                0x000000008f83bf40                mipi_dsih_hal_gen_cmd_mode_en
                0x000000008f83bf64                mipi_dsih_hal_gen_is_cmd_mode
                0x000000008f83bf88                mipi_dsih_hal_dpi_hline
                0x000000008f83bfa8                mipi_dsih_hal_dpi_hbp
                0x000000008f83bfc8                mipi_dsih_hal_dpi_hsa
                0x000000008f83bfe8                mipi_dsih_hal_dpi_vactive
                0x000000008f83c008                mipi_dsih_hal_dpi_vfp
                0x000000008f83c028                mipi_dsih_hal_dpi_vbp
                0x000000008f83c048                mipi_dsih_hal_dpi_vsync
                0x000000008f83c068                mipi_dsih_hal_timeout_clock_division
                0x000000008f83c084                mipi_dsih_hal_lp_rx_timeout
                0x000000008f83c0a4                mipi_dsih_hal_hs_tx_timeout
                0x000000008f83c0c0                mipi_dsih_hal_int_status_0
                0x000000008f83c0d8                mipi_dsih_hal_int_status_1
                0x000000008f83c0f0                mipi_dsih_hal_int_mask_0
                0x000000008f83c0fc                mipi_dsih_hal_int_get_mask_0
                0x000000008f83c114                mipi_dsih_hal_int_mask_1
                0x000000008f83c120                mipi_dsih_hal_int_get_mask_1
                0x000000008f83c138                mipi_dsih_hal_gen_packet_header
                0x000000008f83c174                mipi_dsih_hal_gen_read_payload
                0x000000008f83c190                mipi_dsih_hal_gen_rd_vc
                0x000000008f83c1b0                mipi_dsih_hal_gen_eotp_rx_en
                0x000000008f83c1cc                mipi_dsih_hal_gen_eotp_tx_en
                0x000000008f83c1ec                mipi_dsih_hal_bta_en
                0x000000008f83c20c                mipi_dsih_hal_gen_ecc_rx_en
                0x000000008f83c22c                mipi_dsih_hal_gen_crc_rx_en
                0x000000008f83c24c                mipi_dsih_hal_gen_rd_cmd_busy
                0x000000008f83c25c                mipi_dsih_hal_gen_read_fifo_full
                0x000000008f83c26c                mipi_dsih_hal_gen_read_fifo_empty
                0x000000008f83c27c                mipi_dsih_hal_gen_write_fifo_full
                0x000000008f83c28c                mipi_dsih_hal_gen_packet_payload
                0x000000008f83c2c4                mipi_dsih_hal_gen_write_fifo_empty
                0x000000008f83c2d4                mipi_dsih_hal_gen_cmd_fifo_full
                0x000000008f83c2e4                mipi_dsih_hal_gen_cmd_fifo_empty
                0x000000008f83c2f4                mipi_dsih_phy_hs2lp_config
                0x000000008f83c318                mipi_dsih_phy_lp2hs_config
                0x000000008f83c33c                mipi_dsih_phy_clk_hs2lp_config
                0x000000008f83c360                mipi_dsih_phy_clk_lp2hs_config
                0x000000008f83c384                mipi_dsih_phy_bta_time
                0x000000008f83c3b4                mipi_dsih_non_continuous_clock
                0x000000008f83c3d0                mipi_dsih_non_continuous_clock_status
                0x000000008f83c3e0                mipi_dsih_hal_presp_timeout_low_power_write
                0x000000008f83c400                mipi_dsih_hal_presp_timeout_low_power_read
                0x000000008f83c420                mipi_dsih_hal_presp_timeout_high_speed_write
                0x000000008f83c440                mipi_dsih_hal_presp_timeout_high_speed_read
                0x000000008f83c460                mipi_dsih_hal_presp_timeout_bta
 .text          0x000000008f83c480      0x3bc drivers/video/sprdfb/lcd/liblcd.o
 .text          0x000000008f83c83c     0x234c drivers/video/sprdfb/libsprdfb.o
                0x000000008f83c83c                LCD_SetBackLightBrightness
                0x000000008f83c840                sprd_white_led_init
                0x000000008f83c878                set_backlight
                0x000000008f83c8ec                save_lcd_id_to_kernel
                0x000000008f83c8fc                load_lcd_id_to_kernel
                0x000000008f83c90c                lcd_initcolregs
                0x000000008f83c910                lcd_disable
                0x000000008f83c950                lcd_enable
                0x000000008f83c954                lcd_ctrl_init
                0x000000008f83c9e8                lcd_display
                0x000000008f83cac8                panel_init
                0x000000008f83cb20                panel_ready
                0x000000008f83cb78                sprdfb_panel_invalidate_rect
                0x000000008f83cb9c                sprdfb_panel_invalidate
                0x000000008f83cbb8                sprdfb_panel_before_refresh
                0x000000008f83cbd4                sprdfb_panel_after_refresh
                0x000000008f83cbf0                sprdfb_panel_remove
                0x000000008f83cc20                sprdfb_panel_probe
                0x000000008f83d758                mcu_dispc_init_config
                0x000000008f83d82c                mcu_dispc_set_timing
                0x000000008f83da64                rgb_calc_h_timing
                0x000000008f83da80                rgb_calc_v_timing
                0x000000008f83e108                sprdfb_i2c_init
                0x000000008f83e11c                sprdfb_i2c_uninit
                0x000000008f83e1f0                SPI_PinCfg
                0x000000008f83e210                sprdfb_spi_init
                0x000000008f83e248                sprdfb_spi_uninit
                0x000000008f83e4c8                dsi_early_int
                0x000000008f83e528                sprdfb_dsi_init
                0x000000008f83e8bc                sprdfb_dsi_uninit
                0x000000008f83e930                sprdfb_dsi_ready
                0x000000008f83e9b8                sprdfb_dsi_before_panel_reset
                0x000000008f83e9c8                backlight_control
                0x000000008f83ea00                __raw_bits_and
                0x000000008f83ea10                __raw_bits_or
                0x000000008f83ea20                __raw_bits_set_value
                0x000000008f83ea34                dispc_pll_clk_set
                0x000000008f83ea74                dispc_dbi_clk_set
                0x000000008f83eab4                dispc_dpi_clk_set
                0x000000008f83eaf4                dsi_enable
                0x000000008f83eb3c                dsi_disable
                0x000000008f83eb84                dispc_print_clk
 .text          0x000000008f83eb88     0x58f0 fs/ext4/libext4fs.o
                0x000000008f83eb88                get_fs
                0x000000008f83eb94                ext4fs_free_node
                0x000000008f83ebb4                ext4fs_read_file
                0x000000008f83edf8                ext4fs_ls
                0x000000008f83ee6c                ext4fs_read
                0x000000008f83eea4                ext4fs_probe
                0x000000008f83eed4                ext4_read_file
                0x000000008f83ef64                ext4fs_div_roundup
                0x000000008f83ef84                put_ext4
                0x000000008f83f108                ext4fs_set_block_bmap
                0x000000008f83f1c0                ext4fs_reset_block_bmap
                0x000000008f83f260                ext4fs_set_inode_bmap
                0x000000008f83f2d4                ext4fs_reset_inode_bmap
                0x000000008f83f344                ext4fs_checksum_update
                0x000000008f83f3a0                ext4fs_get_new_blk_no
                0x000000008f83f73c                ext4fs_get_new_inode_no
                0x000000008f83fa8c                ext4fs_allocate_blocks
                0x000000008f840020                ext4fs_read_inode
                0x000000008f840124                ext4fs_iget
                0x000000008f840154                read_allocated_block
                0x000000008f840940                ext4fs_filename_check
                0x000000008f840b8c                ext4fs_get_parent_inode_num
                0x000000008f840ee4                ext4fs_update_parent_dentry
                0x000000008f841268                ext4fs_close
                0x000000008f841344                ext4fs_iterate_dir
                0x000000008f841864                ext4fs_find_file
                0x000000008f8418d4                ext4fs_open
                0x000000008f841968                ext4fs_mount
                0x000000008f841a30                ext4fs_set_blk_dev
                0x000000008f841a78                ext4fs_devread
                0x000000008f841d88                ext4fs_get_bgdtable
                0x000000008f841e48                ext4fs_deinit
                0x000000008f841fd0                ext4fs_init
                0x000000008f842224                ext4fs_write
                0x000000008f84346c                ext4fs_dump_metadata
                0x000000008f8434bc                ext4fs_free_journal
                0x000000008f843594                ext4fs_log_gdt
                0x000000008f843638                ext4fs_log_journal
                0x000000008f84370c                ext4fs_put_metadata
                0x000000008f8437a4                print_revoke_blks
                0x000000008f8437fc                ext4fs_push_revoke_blk
                0x000000008f8438a0                ext4fs_free_revoke_blks
                0x000000008f84390c                check_blknr_for_revoke
                0x000000008f843988                recover_transaction
                0x000000008f843ae0                print_jrnl_status
                0x000000008f843af8                ext4fs_check_journal_state
                0x000000008f843e40                ext4fs_init_journal
                0x000000008f844008                ext4fs_update_journal
                0x000000008f8442bc                ext2fs_crc16
                0x000000008f8442fc                ext4_read_content
                0x000000008f8443bc                ext4_write_content
 .text          0x000000008f844478     0x2d34 fs/fat/libfat.o
                0x000000008f846424                fat_register_device
                0x000000008f84657c                do_fat_read
                0x000000008f846fb4                file_fat_detectfs
                0x000000008f84710c                file_fat_ls
                0x000000008f84711c                file_fat_read
                0x000000008f847154                file_fat_write
                0x000000008f847188                file_fat_rm
 .text          0x000000008f8471ac     0xbba4 fs/ubifs/libubifs.o
                0x000000008f847560                ubifs_decompress
                0x000000008f847764                ubifs_compressors_init
                0x000000008f847798                ubifs_ls
                0x000000008f847c5c                ubifs_load
                0x000000008f847f30                ubifs_ro_mode
                0x000000008f847f68                ubifs_check_node
                0x000000008f84813c                ubifs_pad
                0x000000008f848230                ubifs_prepare_node
                0x000000008f8483b4                ubifs_read_node
                0x000000008f8485b8                sget
                0x000000008f84864c                iget_locked
                0x000000008f848698                ubifs_iput
                0x000000008f8486c4                iput
                0x000000008f848738                ubifs_iget
                0x000000008f848b64                ubifs_umount
                0x000000008f84985c                ubifs_init
                0x000000008f849860                ubifs_mount
                0x000000008f8499a4                ubifs_read_sb_node
                0x000000008f849a0c                ubifs_read_superblock
                0x000000008f84a14c                ubifs_read_master
                0x000000008f84aecc                ubifs_calc_lpt_geom
                0x000000008f84b258                ubifs_unpack_bits
                0x000000008f84b454                ubifs_add_lpt_dirt
                0x000000008f84b484                ubifs_add_nnode_dirt
                0x000000008f84b5d4                ubifs_unpack_nnode
                0x000000008f84b68c                ubifs_read_nnode
                0x000000008f84b900                ubifs_get_nnode
                0x000000008f84b930                ubifs_get_pnode
                0x000000008f84bcf4                ubifs_lpt_lookup
                0x000000008f84bd8c                ubifs_lpt_lookup_dirty
                0x000000008f84bf74                ubifs_lpt_init
                0x000000008f84c144                ubifs_lpt_free
                0x000000008f84c31c                ubifs_scan_a_node
                0x000000008f84c47c                ubifs_start_scan
                0x000000008f84c54c                ubifs_end_scan
                0x000000008f84c568                ubifs_add_snod
                0x000000008f84c644                ubifs_scanned_corruption
                0x000000008f84c66c                ubifs_scan_destroy
                0x000000008f84c6b0                ubifs_scan
                0x000000008f84cb4c                ubifs_add_to_cat
                0x000000008f84cce8                ubifs_replace_cat
                0x000000008f84cd4c                ubifs_categorize_lprops
                0x000000008f84cde0                ubifs_ensure_cat
                0x000000008f84ce28                ubifs_change_lp
                0x000000008f84d12c                ubifs_get_lp_stats
                0x000000008f84d140                ubifs_change_one_lp
                0x000000008f84d1a0                ubifs_update_one_lp
                0x000000008f84d204                ubifs_read_one_lp
                0x000000008f84d234                ubifs_fast_find_free
                0x000000008f84d24c                ubifs_fast_find_empty
                0x000000008f84d268                ubifs_fast_find_freeable
                0x000000008f84d27c                ubifs_fast_find_frdi_idx
                0x000000008f84e720                insert_old_idx_znode
                0x000000008f84e98c                destroy_old_idx
                0x000000008f84e9ec                ubifs_lookup_level0
                0x000000008f84eb30                ubifs_tnc_locate
                0x000000008f84ec28                ubifs_tnc_get_bu_keys
                0x000000008f84ee60                ubifs_tnc_bulk_read
                0x000000008f84f090                ubifs_tnc_lookup_nm
                0x000000008f84f164                ubifs_tnc_add
                0x000000008f84f218                ubifs_tnc_replace
                0x000000008f84f464                ubifs_tnc_remove
                0x000000008f84f4a0                ubifs_tnc_remove_nm
                0x000000008f84f560                ubifs_tnc_add_nm
                0x000000008f84f6ec                ubifs_tnc_remove_range
                0x000000008f84f8dc                ubifs_tnc_next_ent
                0x000000008f84f9e4                ubifs_tnc_remove_ino
                0x000000008f84fb68                ubifs_tnc_levelorder_next
                0x000000008f84fc58                ubifs_search_zbranch
                0x000000008f84fcd8                ubifs_tnc_postorder_first
                0x000000008f84fd14                ubifs_tnc_postorder_next
                0x000000008f84fd4c                ubifs_load_znode
                0x000000008f850068                ubifs_tnc_read_node
                0x000000008f8500ec                crc16
                0x000000008f850168                ubifs_calc_min_idx_lebs
                0x000000008f8501dc                ubifs_reported_space
                0x000000008f850224                ubifs_search_bud
                0x000000008f850258                ubifs_add_bud
                0x000000008f850304                ubifs_clear_orphans
                0x000000008f85038c                ubifs_mount_orphans
                0x000000008f850c88                ubifs_recover_master_node
                0x000000008f850e48                ubifs_write_rcvrd_mst_node
                0x000000008f850fa4                ubifs_recover_leb
                0x000000008f851454                ubifs_recover_log_leb
                0x000000008f8516a0                ubifs_recover_inl_heads
                0x000000008f8516dc                ubifs_clean_lebs
                0x000000008f8518c4                ubifs_recover_size_accum
                0x000000008f8519d8                ubifs_recover_size
                0x000000008f851c94                ubifs_validate_entry
                0x000000008f851dcc                ubifs_replay_journal
 .text          0x000000008f852d50     0xcdfc fs/yaffs2/libyaffs2.o
                0x000000008f852d50                yaffsfs_SetError
                0x000000008f852d60                yaffsfs_GetError
                0x000000008f852d70                yaffsfs_Lock
                0x000000008f852d74                yaffsfs_Unlock
                0x000000008f852d78                yaffsfs_CurrentTime
                0x000000008f852d80                yaffs_malloc
                0x000000008f852d84                yaffs_free
                0x000000008f852d88                yaffsfs_LocalInitialisation
                0x000000008f852d8c                yaffs_StartUp
                0x000000008f8533f8                make_a_file
                0x000000008f85348c                read_a_file
                0x000000008f853508                cmd_yaffs_mount
                0x000000008f85356c                cmd_yaffs_umount
                0x000000008f8535a8                cmd_yaffs_write_file
                0x000000008f8535dc                cmd_yaffs_read_file
                0x000000008f8535f4                cmd_yaffs_mread_file
                0x000000008f853680                cmd_yaffs_mread_fileex
                0x000000008f85372c                cmd_yaffs_mwrite_file
                0x000000008f853784                cmd_yaffs_ls
                0x000000008f853838                cmd_yaffs_ls_chk
                0x000000008f85396c                cmd_yaffs_mkdir
                0x000000008f85399c                cmd_yaffs_rmdir
                0x000000008f8539c8                cmd_yaffs_rm
                0x000000008f8539f4                cmd_yaffs_mv
                0x000000008f853a28                yaffs_get_reserved_block_num
                0x000000008f853a30                cmd_yaffs_rm_chk
                0x000000008f853a88                yaffs_ECCCalculate
                0x000000008f853b80                yaffs_ECCCorrect
                0x000000008f853ca0                yaffs_ECCCalculateOther
                0x000000008f853cfc                yaffs_ECCCorrectOther
                0x000000008f85448c                yaffsfs_GetHandlePointer
                0x000000008f8544a8                yaffsfs_GetHandleObject
                0x000000008f8544dc                yaffsfs_Match
                0x000000008f8544ec                yaffs_open
                0x000000008f854768                yaffs_close
                0x000000008f854808                yaffs_read
                0x000000008f8548c0                yaffs_write
                0x000000008f854980                yaffs_truncate
                0x000000008f8549f0                yaffs_lseek
                0x000000008f854a9c                yaffsfs_DoUnlink
                0x000000008f854b78                yaffs_rmdir
                0x000000008f854b80                yaffs_unlink
                0x000000008f854b88                yaffs_rename
                0x000000008f854c88                yaffs_stat
                0x000000008f854c90                yaffs_lstat
                0x000000008f854c98                yaffs_fstat
                0x000000008f854ce0                yaffs_chmod
                0x000000008f854d30                yaffs_fchmod
                0x000000008f854d78                yaffs_mkdir
                0x000000008f854de4                yaffs_mount
                0x000000008f854e54                yaffs_unmount
                0x000000008f854f28                yaffs_freespace
                0x000000008f854f88                yaffs_initialise
                0x000000008f85500c                yaffs_opendir
                0x000000008f8550d0                yaffs_readdir
                0x000000008f855194                yaffs_rewinddir
                0x000000008f8551b0                yaffs_closedir
                0x000000008f8551e8                yaffs_symlink
                0x000000008f85524c                yaffs_readlink
                0x000000008f8552cc                yaffs_link
                0x000000008f8553a0                yaffs_DumpDevStruct
                0x000000008f8574b8                yaffs_IsManagedTempBuffer
                0x000000008f85753c                yaffs_Root
                0x000000008f857544                yaffs_LostNFound
                0x000000008f85754c                yaffs_CheckFF
                0x000000008f857824                yaffs_HandleChunkError
                0x000000008f857880                yaffs_PutLevel0Tnode
                0x000000008f857a30                yaffs_FindObjectByNumber
                0x000000008f857b14                yaffs_DeleteChunk
                0x000000008f85831c                yaffs_CheckpointSave
                0x000000008f8587a4                yaffs_CheckpointRestore
                0x000000008f858d88                yaffs_GetEquivalentObject
                0x000000008f858db4                yaffs_GetFileSize
                0x000000008f858df8                yaffs_GetObjectName
                0x000000008f858ef8                yaffs_FindObjectByName
                0x000000008f859f44                yaffs_FlushFile
                0x000000008f85a04c                yaffs_ReadDataFromFile
                0x000000008f85a1e4                yaffs_FlushEntireDeviceCache
                0x000000008f85a250                yaffs_WriteDataToFile
                0x000000008f85a500                yaffs_ResizeFile
                0x000000008f85a850                yaffs_DeleteFile
                0x000000008f85aac0                yaffs_Link
                0x000000008f85ab14                yaffs_MknodSymLink
                0x000000008f85ab64                yaffs_MknodSpecial
                0x000000008f85abb4                yaffs_MknodDirectory
                0x000000008f85ac00                yaffs_MknodFile
                0x000000008f85ad4c                yaffs_Unlink
                0x000000008f85ad80                yaffs_RenameObject
                0x000000008f85ae7c                yaffs_GetObjectFileLength
                0x000000008f85aee8                yaffs_GetObjectLinkCount
                0x000000008f85af18                yaffs_GetObjectInode
                0x000000008f85af28                yaffs_GetObjectType
                0x000000008f85afb0                yaffs_GetSymlinkAlias
                0x000000008f85afd4                yaffs_SetAttributes
                0x000000008f85b05c                yaffs_GetAttributes
                0x000000008f85b0ac                yaffs_Deinitialise
                0x000000008f85b1b8                yaffs_GutsInitialise
                0x000000008f85cc18                yaffs_GetNumberOfFreeChunks
                0x000000008f85cc90                yaffs_PackTags1
                0x000000008f85cd04                yaffs_UnpackTags1
                0x000000008f85d0b4                yaffs_CountBits
                0x000000008f85d0c4                yaffs_CalcECC
                0x000000008f85d0e8                yaffs_CalcTagsECC
                0x000000008f85d14c                yaffs_CheckECCOnTags
                0x000000008f85d1ac                yaffs_TagsCompatabilityWriteChunkWithTagsToNAND
                0x000000008f85d2b4                yaffs_TagsCompatabilityReadChunkWithTagsFromNAND
                0x000000008f85d420                yaffs_TagsCompatabilityMarkNANDBlockBad
                0x000000008f85d488                yaffs_TagsCompatabilityQueryNANDBlock
                0x000000008f85d5c0                yaffs_PackTags2
                0x000000008f85d6b4                yaffs_UnpackTags2
                0x000000008f85d7f8                yaffs_InitialiseTags
                0x000000008f85d828                yaffs_ValidateTags
                0x000000008f85d860                yaffs_ReadChunkWithTagsFromNAND
                0x000000008f85d918                yaffs_WriteChunkWithTagsToNAND
                0x000000008f85d9e4                yaffs_MarkBlockBad
                0x000000008f85da0c                yaffs_QueryInitialBlockState
                0x000000008f85da34                yaffs_EraseBlockInNAND
                0x000000008f85da58                yaffs_InitialiseNAND
                0x000000008f85de34                yaffs_CheckpointOpen
                0x000000008f85df58                yaffs_GetCheckpointSum
                0x000000008f85df70                yaffs_CheckpointWrite
                0x000000008f85e028                yaffs_CheckpointRead
                0x000000008f85e29c                yaffs_CheckpointClose
                0x000000008f85e378                yaffs_CheckpointInvalidateStream
                0x000000008f85e490                yaffs_qsort
                0x000000008f85e8a8                nandmtd_WriteChunkToNAND
                0x000000008f85e9ec                nandmtd_ReadChunkFromNAND
                0x000000008f85eb68                nandmtd_EraseBlockInNAND
                0x000000008f85ebd8                nandmtd_InitialiseNAND
                0x000000008f85ebe0                nandmtd2_WriteChunkWithTagsToNAND
                0x000000008f85ed00                nandmtd2_ReadChunkWithTagsFromNAND
                0x000000008f85ee44                nandmtd2_MarkNANDBlockBad
                0x000000008f85eea4                nandmtd2_QueryNANDBlock
                0x000000008f85f358                yaffs_parse_cmdline_partitions
                0x000000008f85f548                yaffs_page_translate
                0x000000008f85f754                nand_write_to_device
                0x000000008f85f8b8                init_yaffs_convert_variables
                0x000000008f85f98c                yaffs2_convertAndWrite
                0x000000008f85fadc                save_to_convert_buffer
                0x000000008f85fb18                convert_buffer_is_full
                0x000000008f85fb38                set_convert_buffer
 .text          0x000000008f85fb4c     0x5964 lib/libgeneric.o
                0x000000008f85fb4c                cyg_crc16
                0x000000008f85fb90                crc32_no_comp
                0x000000008f85fcf0                crc32
                0x000000008f85fd04                crc32_wd
                0x000000008f85fd54                crc32b
                0x000000008f85fe3c                display_options
                0x000000008f85fe5c                print_size
                0x000000008f85ff90                print_buffer
                0x000000008f8600f8                __div64_32
                0x000000008f8601e0                zfree
                0x000000008f8601e8                zalloc
                0x000000008f8601f8                zunzip
                0x000000008f8602e0                gunzip
                0x000000008f8603a0                hcreate_r
                0x000000008f86044c                hcreate
                0x000000008f860458                hdestroy_r
                0x000000008f8604cc                hdestroy
                0x000000008f8604d8                hsearch_r
                0x000000008f86079c                hsearch
                0x000000008f8607cc                hdelete_r
                0x000000008f860854                hdelete
                0x000000008f860860                hexport_r
                0x000000008f860a7c                hexport
                0x000000008f860aa4                himport_r
                0x000000008f860ce4                himport
                0x000000008f860edc                lmb_dump_all
                0x000000008f860ee0                lmb_init
                0x000000008f860f08                lmb_add
                0x000000008f860f0c                lmb_free
                0x000000008f861030                lmb_reserve
                0x000000008f861038                lmb_overlaps_region
                0x000000008f861094                __lmb_alloc_base
                0x000000008f8611c4                lmb_alloc_base
                0x000000008f8611f8                lmb_alloc
                0x000000008f861200                lmb_is_reserved
                0x000000008f861260                board_lmb_reserve
                0x000000008f861260                __board_lmb_reserve
                0x000000008f861264                __arch_lmb_reserve
                0x000000008f861268                ldiv
                0x000000008f8612b8                string_to_ip
                0x000000008f861314                qsort
                0x000000008f8613e4                strcpy
                0x000000008f8613fc                strncpy
                0x000000008f861420                strcat
                0x000000008f86144c                strncat
                0x000000008f8614a0                strcmp
                0x000000008f8614c8                strncmp
                0x000000008f86150c                strchr
                0x000000008f861540                strlen
                0x000000008f861560                strrchr
                0x000000008f86159c                strnlen
                0x000000008f8615c8                strdup
                0x000000008f8615fc                strspn
                0x000000008f86163c                strpbrk
                0x000000008f861678                strtok
                0x000000008f8616f0                strsep
                0x000000008f861724                strswab
                0x000000008f861770                memset
                0x000000008f8617e0                bcopy
                0x000000008f861808                memcpy
                0x000000008f86186c                memmove
                0x000000008f8618d0                memcmp
                0x000000008f861904                memscan
                0x000000008f861930                strstr
                0x000000008f861990                memchr
                0x000000008f8619c0                wcsncmp
                0x000000008f861a14                wcslen
                0x000000008f861a38                wcscmp
                0x000000008f861a64                strmhz
                0x000000008f861ad4                udelay
                0x000000008f862008                simple_strtoul
                0x000000008f8620b4                simple_strtol
                0x000000008f8620dc                ustrtoul
                0x000000008f862150                simple_strtoull
                0x000000008f862250                vsprintf
                0x000000008f86269c                sprintf
                0x000000008f8626c0                panic
                0x000000008f86270c                zcfree
                0x000000008f862714                zcalloc
                0x000000008f86271c                inflate_fast
                0x000000008f862cc8                inflate_table
                0x000000008f86328c                inflateReset
                0x000000008f863314                inflateInit2_
                0x000000008f863418                inflateInit_
                0x000000008f86342c                inflateEnd
                0x000000008f8634a4                adler32
                0x000000008f86378c                inflate
                0x000000008f864ec4                rb_insert_color
                0x000000008f864ff0                rb_erase
                0x000000008f865348                rb_first
                0x000000008f86536c                rb_last
                0x000000008f865390                rb_next
                0x000000008f8653f0                rb_prev
                0x000000008f865450                rb_replace_node
 .text          0x000000008f8654b0      0x7a4 lib/lzo/liblzo.o
                0x000000008f8654f8                lzo1x_decompress_safe
                0x000000008f865b34                lzop_decompress
 .text          0x000000008f865c54     0x12c0 nand_fdl/common/src/libfdlcommon.o
                0x000000008f865c54                FDL_DlInit
                0x000000008f865c74                FDL_DlReg
                0x000000008f865c98                FDL_DlEntry
                0x000000008f865ce4                crc_16_l_calc
                0x000000008f865d40                frm_chk
                0x000000008f865dc0                Get_CheckSum
                0x000000008f865e18                FDL_PacketInit
                0x000000008f865e98                FDL_MallocPacket
                0x000000008f865ee4                FDL_FreePacket
                0x000000008f865efc                FDL_WritePacket
                0x000000008f865f24                FDL_DataProcess
                0x000000008f865fd0                FDL_SendPacket
                0x000000008f866038                FDL_SendAckPacket
                0x000000008f86606c                FDL_PacketDoIdle
                0x000000008f8662d8                FDL_GetPacket
                0x000000008f866310                FDL_ChannelGet
                0x000000008f866338                FDL_memcpy
                0x000000008f866358                FDL_memset
                0x000000008f866374                EndianConv_16
                0x000000008f866384                EndianConv_32
                0x000000008f8663e0                usb_init
                0x000000008f8663f8                usb_boot
                0x000000008f8663fc                usb_varinit
                0x000000008f866404                usb_ldo_enable
                0x000000008f866444                usb_write
                0x000000008f86660c                EPI0_config
                0x000000008f866678                usb_EPActive
                0x000000008f8666d8                usb_enumeration_done
                0x000000008f866bdc                USB_EPxSendData
                0x000000008f866c98                usb_core_init
                0x000000008f866cd8                VCOM_GetChar
                0x000000008f866d54                VCOM_GetSingleChar
                0x000000008f866dd4                VCOM_Read
                0x000000008f866efc                UCOM_Get_DevDesc
                0x000000008f866f08                UCOM_Get_CfgDesc
 .text          0x000000008f866f14     0x3f00 property/libproperty.o
                0x000000008f866f78                alarm_file_check
                0x000000008f866fa8                poweron_file_check
                0x000000008f866fd8                alarm_mode
                0x000000008f86700c                alarm_flag_check
                0x000000008f8671ec                creat_atags
                0x000000008f86729c                boot_linux
                0x000000008f8672c0                autodloader_end
                0x000000008f8672e8                autodloader_midst
                0x000000008f867374                autodloader_connect
                0x000000008f867388                autodloader_exec
                0x000000008f8673c0                autodloader_start
                0x000000008f867418                autodloader_initusb
                0x000000008f8674bc                autodloader_mainhandler
                0x000000008f867598                autodlader_remap
                0x000000008f8675b0                autodloader_mode
                0x000000008f8675e0                XCheckNVStructEx
                0x000000008f8676b4                XFindNVOffset
                0x000000008f867790                XFindNVOffsetEx
                0x000000008f8677f0                XCheckCalibration
                0x000000008f867914                GSMCaliPreserve
                0x000000008f867a38                XTDCaliPreserve
                0x000000008f867c1c                LTECaliPreserve
                0x000000008f867d18                XPreserveNVItem
                0x000000008f867e6c                XPreserveIMEIs
                0x000000008f867ecc                cmd_mode_regist
                0x000000008f867f6c                get_calibration_parameter
                0x000000008f867f84                check_caliberate
                0x000000008f867fe4                is_timeout
                0x000000008f868074                calibration_detect
                0x000000008f868448                poweron_by_calibration
                0x000000008f868458                cali_file_check
                0x000000008f8684c0                read_adc_calibration_data
                0x000000008f86851c                charge_mode
                0x000000008f8685a0                boot_pwr_check
                0x000000008f8685c8                do_cboot
                0x000000008f868774                get_mode_from_calibration
                0x000000008f8687b0                get_mode_from_bat_low
                0x000000008f86881c                write_sysdump_before_boot_extend
                0x000000008f868830                get_mode_from_file_extend
                0x000000008f868864                get_mode_from_watchdog
                0x000000008f868964                get_mode_from_alarm_register
                0x000000008f8689b8                get_mode_from_charger
                0x000000008f8689dc                get_mode_from_keypad
                0x000000008f868a74                get_mode_from_gpio_extend
                0x000000008f868a98                engtest_mode
                0x000000008f868acc                fastboot_mode
                0x000000008f868b88                do_fs_file_read
                0x000000008f868bf8                do_fs_file_write
                0x000000008f868c00                do_raw_data_read
                0x000000008f868ddc                do_raw_data_write
                0x000000008f868df4                modem_entry
                0x000000008f868e4c                read_logoimg
                0x000000008f868ee0                read_spldata
                0x000000008f868f38                _boot_partition_read
                0x000000008f86909c                _boot_partition_write
                0x000000008f869460                vlx_nand_boot
                0x000000008f8698d4                calc_checksum
                0x000000008f86992c                _chkNVEcc
                0x000000008f869978                lcd_display_logo
                0x000000008f8699f4                is_factorymode
                0x000000008f869a8c                get_product_sn
                0x000000008f869b20                cmdline_fixup_lcd
                0x000000008f869ba8                cmdline_fixup_usb_phy_tune
                0x000000008f869be8                cmdline_fixup_factorymode
                0x000000008f869c20                cmdline_fixup_adc_data
                0x000000008f869cf8                cmdline_fixup_harsh_data
                0x000000008f869de0                cmdline_fixup_serialno
                0x000000008f869e18                cmdline_fixup_fgu
                0x000000008f869e50                cmdline_fixup_apct_param
                0x000000008f869ec4                cmdline_set_cp_cmdline
                0x000000008f869f18                creat_cmdline
                0x000000008f86a098                vlx_entry
                0x000000008f86a0f4                normal_mode
                0x000000008f86a120                special_mode
                0x000000008f86a160                iq_mode
                0x000000008f86a1a0                watchdog_mode
                0x000000008f86a1e0                unknow_reboot_mode
                0x000000008f86a220                panic_reboot_mode
                0x000000008f86a268                sipc_addr_reset
                0x000000008f86a298                reboot_func
                0x000000008f86a2d0                get_recovery_message
                0x000000008f86a378                set_recovery_message
                0x000000008f86a464                nv_patch
                0x000000008f86a4c0                read_update_header_for_bootloader
                0x000000008f86a4c8                update_firmware_image
                0x000000008f86a4d0                get_mode_from_file
                0x000000008f86a5a8                recovery_mode
                0x000000008f86a5dc                display_writing_sysdump
                0x000000008f86a68c                display_special_mode
                0x000000008f86a73c                init_mmc_fat
                0x000000008f86a7fc                write_mem_to_mmc
                0x000000008f86a880                sysdump_flag_check
                0x000000008f86a92c                write_sysdump_before_boot
                0x000000008f86ad24                put_vbat_value
                0x000000008f86ad4c                get_vbat_value
                0x000000008f86ad80                is_bat_low
 .text          0x000000008f86ae14       0x9c board/spreadtrum/sp7731gea/libsp7731gea.o(openphone.o)
                0x000000008f86ae14                board_mmc_init
                0x000000008f86ae44                board_init
                0x000000008f86ae90                dram_init
 .text          0x000000008f86aeb0      0x24c board/spreadtrum/sp7731gea/libsp7731gea.o(sprd_kp.o)
                0x000000008f86af2c                board_keypad_init
                0x000000008f86b010                board_key_scan
                0x000000008f86b0c0                check_key_boot
 .text          0x000000008f86b0fc       0x3c board/spreadtrum/sp7731gea/libsp7731gea.o(pinmap-sp8830.o)
                0x000000008f86b0fc                pin_init
 .text          0x000000008f86b138      0x1ec board/spreadtrum/sp7731gea/libsp7731gea.o(ldo_sleep.o)
                0x000000008f86b140                init_ldo_sleep_gr
 .text          0x000000008f86b324      0x224 arch/arm/cpu/armv7/sc8830/libsc8830.o(mmu_asm.o)
                0x000000008f86b324                Dcache_InvalRegion
                0x000000008f86b370                Dcache_CleanRegion
                0x000000008f86b3ac                MMU_InvalideICACHEALL
                0x000000008f86b3d4                MMU_EnableIDCM
                0x000000008f86b4f8                MMU_DisableIDCM
 .text          0x000000008f86b548      0x1f8 arch/arm/cpu/armv7/sc8830/libsc8830.o(timer.o)
                0x000000008f86b548                timer_init
                0x000000008f86b570                reset_timer
                0x000000008f86b598                reset_timer_masked
                0x000000008f86b59c                get_ticks
                0x000000008f86b5e4                get_timer_masked
                0x000000008f86b638                get_timer
                0x000000008f86b64c                set_timer
                0x000000008f86b69c                __udelay
                0x000000008f86b700                SCI_GetTickCount
 .text          0x000000008f86b740       0x4c arch/arm/cpu/armv7/sc8830/libsc8830.o(reset.o)
                0x000000008f86b740                reset_cpu
                0x000000008f86b750                power_down_cpu
 .text          0x000000008f86b78c      0x3f8 arch/arm/cpu/armv7/sc8830/libsc8830.o(ldo.o)
                0x000000008f86b7f0                LDO_TurnOnLDO
                0x000000008f86b88c                LDO_TurnOffLDO
                0x000000008f86b924                LDO_IsLDOOn
                0x000000008f86b97c                LDO_SetVoltLevel
                0x000000008f86ba8c                LDO_GetVoltLevel
                0x000000008f86bae8                LDO_Init
                0x000000008f86bb40                LDO_TurnOffAllLDO
 .text          0x000000008f86bb84      0x320 arch/arm/cpu/armv7/sc8830/libsc8830.o(chg_phy.o)
                0x000000008f86bb84                CHGMNG_AdcvalueToVoltage
                0x000000008f86bbc0                CHG_TurnOn
                0x000000008f86bbd4                CHG_ShutDown
                0x000000008f86bbe8                CHG_SetRecharge
                0x000000008f86bbfc                CHG_SetChgCur
                0x000000008f86bc74                CHG_GetAdcCalType
                0x000000008f86bc84                CHG_LowBatChg
                0x000000008f86bc88                CHG_LateInit
                0x000000008f86bc8c                get_adc_cali_data
                0x000000008f86bd6c                sprd_charger_is_adapter
                0x000000008f86bdac                fgu_init
                0x000000008f86be54                CHG_Init
 .text          0x000000008f86bea4       0x58 arch/arm/cpu/armv7/sc8830/libsc8830.o(mmu.o)
                0x000000008f86bea4                MMU_Init
 .text          0x000000008f86befc      0x228 arch/arm/cpu/armv7/sc8830/libsc8830.o(adc.o)
                0x000000008f86befc                ADC_Init
                0x000000008f86bf7c                ADC_SetCs
                0x000000008f86bfac                ADC_SetScale
                0x000000008f86bfec                ADC_GetValues
                0x000000008f86c108                ADC_GetValue
 .text          0x000000008f86c124      0x470 arch/arm/cpu/armv7/sc8830/libsc8830.o(rtc-sprd.o)
                0x000000008f86c20c                rtc_clean_all_int
                0x000000008f86c240                sprd_rtc_get_sec
                0x000000008f86c290                sprd_rtc_set_sec
                0x000000008f86c3b0                sprd_rtc_get_alarm_sec
                0x000000008f86c418                sprd_rtc_set_alarm_sec
                0x000000008f86c4b8                sprd_clean_rtc
                0x000000008f86c564                sprd_rtc_init
 .text          0x000000008f86c594      0x204 arch/arm/cpu/armv7/sc8830/libsc8830.o(sec_boot.o)
                0x000000008f86c594                secure_check
                0x000000008f86c598                get_rom_callback
                0x000000008f86c5a4                secureboot_enabled
                0x000000008f86c5ac                RSA_Decrypt
                0x000000008f86c6c0                harshVerify
                0x000000008f86c774                get_sec_callback
                0x000000008f86c790                cal_md5
 .text          0x000000008f86c798       0x44 arch/arm/cpu/armv7/sc8830/libsc8830.o(glb.o)
                0x000000008f86c798                sci_glb_read
                0x000000008f86c7a4                sci_glb_write
                0x000000008f86c7bc                sci_glb_set
                0x000000008f86c7cc                sci_glb_clr
 .text          0x000000008f86c7dc      0x444 arch/arm/cpu/armv7/sc8830/libsc8830.o(adi.o)
                0x000000008f86ca10                sci_adi_read
                0x000000008f86ca60                sci_adi_write_fast
                0x000000008f86cac4                sci_adi_write
                0x000000008f86cb38                sci_adi_init
                0x000000008f86cbdc                sci_get_adie_chip_id
 .text          0x000000008f86cc20      0x488 arch/arm/cpu/armv7/sc8830/libsc8830.o(gpio.o)
                0x000000008f86ce5c                sprd_gpio_direction_output
                0x000000008f86ce94                sprd_gpio_direction_input
                0x000000008f86cebc                sprd_gpio_get
                0x000000008f86cf58                sprd_gpio_set
                0x000000008f86d00c                sprd_gpio_request
                0x000000008f86d080                sprd_gpio_init
 .text          0x000000008f86d0a8       0x14 arch/arm/cpu/armv7/sc8830/libsc8830.o(gpio_phy.o)
                0x000000008f86d0a8                gpio_get_section_table
 .text          0x000000008f86d0bc      0x2bc arch/arm/cpu/armv7/sc8830/libsc8830.o(check_reboot.o)
                0x000000008f86d0bc                check_reboot_mode
                0x000000008f86d22c                reboot_devices
                0x000000008f86d284                power_down_devices
                0x000000008f86d28c                power_button_pressed
                0x000000008f86d310                charger_connected
                0x000000008f86d338                get_mode_from_gpio
                0x000000008f86d360                alarm_triggered
 .text          0x000000008f86d378      0x190 arch/arm/cpu/armv7/sc8830/libsc8830.o(eic.o)
                0x000000008f86d378                sprd_eic_get
                0x000000008f86d418                sprd_eic_irq_set_type
                0x000000008f86d420                sprd_eic_irq_sts
                0x000000008f86d428                sprd_eic_request
                0x000000008f86d4b8                sprd_eic_init
 .text          0x000000008f86d508       0xe8 arch/arm/cpu/armv7/sc8830/libsc8830.o(vibrator_sc2713.o)
                0x000000008f86d508                set_vibrator
                0x000000008f86d570                vibrator_hw_init
 .text          0x000000008f86d5f0       0x2c arch/arm/cpu/armv7/sc8830/libsc8830.o(otp-helper.o)
                0x000000008f86d5f0                sci_efuse_calibration_get
 .text          0x000000008f86d61c      0x1e4 arch/arm/cpu/armv7/sc8830/libsc8830.o(efuse.o)
                0x000000008f86d63c                efuse_lookat
                0x000000008f86d680                __efuse_power_on
                0x000000008f86d6dc                __efuse_power_off
                0x000000008f86d724                __ddie_efuse_read
                0x000000008f86d7ac                __ddie_efuse_block_dump
 .text          0x000000008f86d800       0x40 arch/arm/cpu/armv7/sc8830/libsc8830.o(watchdog.o)
                0x000000008f86d800                start_watchdog
                0x000000008f86d810                stop_watchdog
                0x000000008f86d814                init_watchdog
                0x000000008f86d818                feed_watchdog
                0x000000008f86d81c                load_watchdog
                0x000000008f86d820                hw_watchdog_reset
                0x000000008f86d824                hw_watchdog_rst_pending
                0x000000008f86d834                fatal_dump_enabled
 .text          0x000000008f86d840      0x198 arch/arm/cpu/armv7/sc8830/libsc8830.o(watchdog_phy_v3.o)
                0x000000008f86d840                WDG_PHY_CONFIG
                0x000000008f86d938                WDG_PHY_INT_CLR
                0x000000008f86d99c                WDG_ClockOn
                0x000000008f86d9cc                WDG_PHY_RST_RAW_INT
 .text          0x000000008f86d9d8      0x13c arch/arm/cpu/armv7/sc8830/libsc8830.o(watchdog_hal.o)
                0x000000008f86d9d8                WDG_TimerStop
                0x000000008f86da10                WDG_TimerStart
                0x000000008f86da40                WDG_TimerHandler
                0x000000008f86da44                WDG_TimerInit
                0x000000008f86da78                WDG_ResetMCU
                0x000000008f86daa8                WDG_TimerLoad
                0x000000008f86daec                WDG_PHY_RST_INT_ON
 .text          0x000000008f86db14       0x20 arch/arm/cpu/armv7/sc8830/libsc8830.o(chip_cfg.o)
                0x000000008f86db14                Get_system_clk_cfg
                0x000000008f86db20                FDL_GetBootMode
 .text          0x000000008f86db34      0x514 arch/arm/cpu/armv7/sc8830/libsc8830.o(chip_phy_x30g.o)
                0x000000008f86dbd8                CHIP_ResetMCU
                0x000000008f86dc20                CHIP_PHY_SetRstMode
                0x000000008f86dc54                CHIP_PHY_GetRstMode
                0x000000008f86dc6c                CHIP_PHY_ResetHWFlag
                0x000000008f86dccc                CHIP_PHY_SetWDGHWFlag
                0x000000008f86dd04                CHIP_PHY_BootIramEn
                0x000000008f86dd08                CHIP_PHY_IsWDGRstByMCU
                0x000000008f86dd50                CHIP_PHY_IsResetByPowerUp
                0x000000008f86dd70                CHIP_PHY_IsResetByWatchDog
                0x000000008f86dd90                TDPllRefConfig
                0x000000008f86debc                pmu_cp_modem_config
                0x000000008f86df5c                CSP_Init
 .text          0x000000008f86e048      0x11c arch/arm/cpu/armv7/sc8830/libsc8830.o(Tshark_boot_cp.o)
                0x000000008f86e048                boot_cp0
                0x000000008f86e0d4                boot_cp2
 .text          0x000000008f86e164      0x1f4 arch/arm/cpu/armv7/sc8830/libsc8830.o(misc.o)
                0x000000008f86e164                sprd_jtag_enable
                0x000000008f86e188                sprd_jtag_disable
                0x000000008f86e1b4                is_7s_reset
                0x000000008f86e1c8                is_7s_reset_for_systemdump
                0x000000008f86e1dc                pbint_7s_rst_cfg
                0x000000008f86e2a8                scx35_pmu_reconfig
                0x000000008f86e2ac                is_hw_smpl_enable
                0x000000008f86e2b4                is_smpl_bootup
                0x000000008f86e2bc                misc_init
                0x000000008f86e340                get_dram_cs_number
                0x000000008f86e34c                get_dram_cs0_size
 .text          0x000000008f86e358     0x11ac arch/arm/cpu/armv7/sc8830/libsc8830.o(dcdc_cal_sc2713s.o)
                0x000000008f86e9b4                regulator_init
                0x000000008f86e9bc                regulator_get
                0x000000008f86ea04                regulator_disable_all
                0x000000008f86ea50                regulator_enable_all
                0x000000008f86ea9c                regulator_disable
                0x000000008f86ead0                regulator_enable
                0x000000008f86eb04                regulator_set_voltage
                0x000000008f86eb60                regulator_default_get
                0x000000008f86eb74                regulator_default_set
                0x000000008f86f1a4                regulator_default_set_all
                0x000000008f86f284                regulator_get_calibration_mask
                0x000000008f86f354                DCDC_Cal_ArmCore
                0x000000008f86f4e8                calibrate_register_callback
 .text          0x000000008f86f504       0x20 /home/pillar/SC7731/sprd_project/sc7731_u-boot/build/sp7731gea-u-boot/arch/arm/lib/eabi_compat.o
                0x000000008f86f504                raise
                0x000000008f86f520                __aeabi_unwind_cpp_pr0
 *fill*         0x000000008f86f524        0x4 00
 .text          0x000000008f86f528      0x278 /usr/lib/gcc/arm-linux-gnueabihf/4.6/libgcc.a(_udivsi3.o)
                0x000000008f86f528                __udivsi3
                0x000000008f86f528                __aeabi_uidiv
                0x000000008f86f784                __aeabi_uidivmod
 .text          0x000000008f86f7a0      0x2b0 /usr/lib/gcc/arm-linux-gnueabihf/4.6/libgcc.a(_divsi3.o)
                0x000000008f86f7a0                __aeabi_idiv
                0x000000008f86f7a0                __divsi3
                0x000000008f86fa34                __aeabi_idivmod
 .text          0x000000008f86fa50       0x18 /usr/lib/gcc/arm-linux-gnueabihf/4.6/libgcc.a(_lshrdi3.o)
                0x000000008f86fa50                __aeabi_llsr
                0x000000008f86fa50                __lshrdi3
 .text          0x000000008f86fa68       0x1c /usr/lib/gcc/arm-linux-gnueabihf/4.6/libgcc.a(_ashrdi3.o)
                0x000000008f86fa68                __ashrdi3
                0x000000008f86fa68                __aeabi_lasr
 .text          0x000000008f86fa84       0x18 /usr/lib/gcc/arm-linux-gnueabihf/4.6/libgcc.a(_ashldi3.o)
                0x000000008f86fa84                __ashldi3
                0x000000008f86fa84                __aeabi_llsl
 .text          0x000000008f86fa9c        0xc /usr/lib/gcc/arm-linux-gnueabihf/4.6/libgcc.a(_dvmd_lnx.o)
                0x000000008f86fa9c                __aeabi_ldiv0
                0x000000008f86fa9c                __aeabi_idiv0

.glue_7         0x000000008f86faa8        0x0
 .glue_7        0x0000000000000000        0x0 linker stubs

.glue_7t        0x000000008f86faa8        0x0
 .glue_7t       0x0000000000000000        0x0 linker stubs

.vfp11_veneer   0x000000008f86faa8        0x0
 .vfp11_veneer  0x0000000000000000        0x0 linker stubs

.v4_bx          0x000000008f86faa8        0x0
 .v4_bx         0x0000000000000000        0x0 linker stubs

.iplt           0x000000008f86faa8        0x0
 .iplt          0x0000000000000000        0x0 arch/arm/cpu/armv7/start.o

.text.unlikely  0x000000008f86faa8      0x55c
 .text.unlikely
                0x000000008f86faa8       0x58 drivers/mmc/libmmc.o
 .text.unlikely
                0x000000008f86fb00      0x504 property/libproperty.o
                0x000000008f870004                . = ALIGN (0x4)

.rodata         0x000000008f870004    0x194cd
 *(SORT(.rodata*))
 .rodata        0x000000008f870004       0xc0 arch/arm/lib/libarm.o
                0x000000008f870004                version_string
 .rodata        0x000000008f8700c4     0x1104 common/libcommon.o
 .rodata        0x000000008f8711c8       0xd5 disk/libdisk.o
 *fill*         0x000000008f87129d        0x3 00
 .rodata        0x000000008f8712a0       0x90 drivers/i2c/libi2c.o
                0x000000008f8712a0                __i2c_base_info
                0x000000008f8712d0                __i2c_phy_cfg
 .rodata        0x000000008f871330      0xdd8 drivers/mmc/libmmc.o
 .rodata        0x000000008f872108      0x72c drivers/mtd/ubi/libubi.o
 .rodata        0x000000008f872834       0xf0 drivers/sound/codec/libcodec.o
 .rodata        0x000000008f872924      0x8d5 drivers/usb/gadget/dwc_otg/libdwc_otg.o
 *fill*         0x000000008f8731f9        0x3 00
 .rodata        0x000000008f8731fc       0xed drivers/usb/gadget/libusb_gadget.o
 *fill*         0x000000008f8732e9        0x3 00
 .rodata        0x000000008f8732ec      0x289 drivers/video/sprdfb/dsi_1_21a/libsprdfb_dsi.o
 *fill*         0x000000008f873575        0x3 00
 .rodata        0x000000008f873578      0x2f9 drivers/video/sprdfb/libsprdfb.o
 *fill*         0x000000008f873871        0x3 00
 .rodata        0x000000008f873874      0x640 fs/ubifs/libubifs.o
                0x000000008f873b9c                crc16_table
 .rodata        0x000000008f873eb4      0x26b fs/yaffs2/libyaffs2.o
 *fill*         0x000000008f87411f        0x1 00
 .rodata        0x000000008f874120     0x1004 lib/libgeneric.o
                0x000000008f874746                hex_asc
                0x000000008f8750fc                z_errmsg
 .rodata        0x000000008f875124       0xcc nand_fdl/common/src/libfdlcommon.o
                0x000000008f8751bc                DeviceDescrSerial
                0x000000008f8751d0                ConfigDescrSerial_64
 .rodata        0x000000008f8751f0      0x49c property/libproperty.o
                0x000000008f87554c                SP09_MAX_PHASE_BUFF_SIZE
 .rodata        0x000000008f87568c      0x758 board/spreadtrum/sp7731gea/libsp7731gea.o(pinmap-sp8830.o)
 .rodata        0x000000008f875de4        0x4 arch/arm/cpu/armv7/sc8830/libsc8830.o(mmu.o)
                0x000000008f875de4                const_MMUTableStartAddr
 .rodata        0x000000008f875de8       0xd8 arch/arm/cpu/armv7/sc8830/libsc8830.o(gpio_phy.o)
 .rodata        0x000000008f875ec0        0xc arch/arm/cpu/armv7/sc8830/libsc8830.o(chip_cfg.o)
                0x000000008f875ec0                g_system_clk_cfg
 .rodata        0x000000008f875ecc       0x50 arch/arm/cpu/armv7/sc8830/libsc8830.o(chip_phy_x30g.o)
 .rodata        0x000000008f875f1c       0x18 arch/arm/cpu/armv7/sc8830/libsc8830.o(Tshark_boot_cp.o)
 .rodata.regu_2713s.init0
                0x000000008f875f34        0x4 arch/arm/cpu/armv7/sc8830/libsc8830.o(dcdc_cal_sc2713s.o)
 .rodata.regu_2713s.init1
                0x000000008f875f38      0x144 arch/arm/cpu/armv7/sc8830/libsc8830.o(dcdc_cal_sc2713s.o)
                0x000000008f875f38                S_DESC_led_flash
                0x000000008f875f44                S_DESC_chg_pump
                0x000000008f875f50                S_DESC_vddclsg
                0x000000008f875f5c                S_DESC_vddusb
                0x000000008f875f68                S_DESC_vddcammot
                0x000000008f875f74                S_DESC_vddcamio
                0x000000008f875f80                S_DESC_vddcamd
                0x000000008f875f8c                S_DESC_vddcama
                0x000000008f875f98                S_DESC_vddsim2
                0x000000008f875fa4                S_DESC_vddsim1
                0x000000008f875fb0                S_DESC_vddsim0
                0x000000008f875fbc                S_DESC_vddsd
                0x000000008f875fc8                S_DESC_avdd18
                0x000000008f875fd4                S_DESC_vddemmccore
                0x000000008f875fe0                S_DESC_vddemmcio
                0x000000008f875fec                S_DESC_vddrf2
                0x000000008f875ff8                S_DESC_vddrf1
                0x000000008f876004                S_DESC_vddrf0
                0x000000008f876010                S_DESC_vdd25
                0x000000008f87601c                S_DESC_vdd28
                0x000000008f876028                S_DESC_vdd18
                0x000000008f876034                S_DESC_vddwrf
                0x000000008f876040                S_DESC_vddwpa
                0x000000008f87604c                S_DESC_vddgen
                0x000000008f876058                S_DESC_vddmem
                0x000000008f876064                S_DESC_vddarm
                0x000000008f876070                S_DESC_vddcore
 .rodata.regu_2713s.init2
                0x000000008f87607c        0x4 arch/arm/cpu/armv7/sc8830/libsc8830.o(dcdc_cal_sc2713s.o)
 .rodata.str4.4
                0x000000008f876080       0xec drivers/usb/gadget/libusb_gadget.o
                                        0x108 (size before relaxing)
 .rodata.str4.4
                0x000000008f87616c      0x1f4 property/libproperty.o
                                        0x214 (size before relaxing)
 .rodata        0x000000008f876360      0x252 fs/ext4/libext4fs.o
 .rodata        0x000000008f8765b2       0x12 drivers/mtd/libmtd.o
 .rodata        0x000000008f8765c4      0x229 drivers/mtd/nand/libnand.o
 .rodata        0x000000008f8767ed       0x20 drivers/sound/dai/libdai.o
 .rodata        0x000000008f87680d        0x9 lib/lzo/liblzo.o
 .rodata        0x000000008f876816       0x12 board/spreadtrum/sp7731gea/libsp7731gea.o(sprd_kp.o)
 .rodata        0x000000008f876828       0x59 arch/arm/cpu/armv7/sc8830/libsc8830.o(ldo.o)
 .rodata        0x000000008f876881       0x60 arch/arm/cpu/armv7/sc8830/libsc8830.o(adi.o)
 .rodata        0x000000008f8768e1       0x32 arch/arm/cpu/armv7/sc8830/libsc8830.o(gpio.o)
 .rodata        0x000000008f876913       0x1a arch/arm/cpu/armv7/sc8830/libsc8830.o(otp-helper.o)
 .rodata        0x000000008f87692d       0x71 arch/arm/cpu/armv7/sc8830/libsc8830.o(dcdc_cal_sc2713s.o)
 .rodata.str1.1
                0x000000008f87699e      0x352 arch/arm/lib/libarm.o
                                        0x36f (size before relaxing)
 .rodata.str1.1
                0x000000008f876cf0     0x518f common/libcommon.o
                                       0x56b5 (size before relaxing)
 .rodata.str1.1
                0x000000008f87be7f      0x5c9 disk/libdisk.o
                                        0x5f4 (size before relaxing)
 .rodata.str1.1
                0x000000008f87c448      0x79a drivers/mmc/libmmc.o
                                        0x7a3 (size before relaxing)
 .rodata.str1.1
                0x000000008f87cbe2      0x244 drivers/mtd/libmtd.o
 .rodata.str1.1
                0x000000008f87ce26      0xde4 drivers/mtd/nand/libnand.o
                                        0xe37 (size before relaxing)
 .rodata.str1.1
                0x000000008f87dc0a     0x175d drivers/mtd/ubi/libubi.o
                                       0x1b60 (size before relaxing)
 .rodata.str1.1
                0x000000008f87f367      0x333 drivers/sound/codec/libcodec.o
                                        0x37d (size before relaxing)
 .rodata.str1.1
                0x000000008f87f69a       0xc6 drivers/sound/dai/libdai.o
 .rodata.str1.1
                0x000000008f87f760      0x7f3 drivers/sound/libsound.o
                                        0x813 (size before relaxing)
 .rodata.str1.1
                0x000000008f87ff53     0x1e0e drivers/usb/gadget/dwc_otg/libdwc_otg.o
                                       0x1e76 (size before relaxing)
 .rodata.str1.1
                0x000000008f881d61      0x56f drivers/usb/gadget/libusb_gadget.o
                                        0x5a9 (size before relaxing)
 .rodata.str1.1
                0x000000008f8822d0      0x3b3 drivers/video/sprdfb/dsi_1_21a/libsprdfb_dsi.o
 .rodata.str1.1
                0x000000008f882683      0x135 drivers/video/sprdfb/lcd/liblcd.o
 .rodata.str1.1
                0x000000008f8827b8      0x853 drivers/video/sprdfb/libsprdfb.o
                                        0x97a (size before relaxing)
 .rodata.str1.1
                0x000000008f88300b      0x716 fs/ext4/libext4fs.o
                                        0x723 (size before relaxing)
 .rodata.str1.1
                0x000000008f883721      0x266 fs/fat/libfat.o
                                        0x2b1 (size before relaxing)
 .rodata.str1.1
                0x000000008f883987     0x17ab fs/ubifs/libubifs.o
                                       0x1999 (size before relaxing)
 .rodata.str1.1
                0x000000008f885132     0x216f fs/yaffs2/libyaffs2.o
                                       0x2322 (size before relaxing)
 .rodata.str1.1
                0x000000008f8872a1      0x33f lib/libgeneric.o
                                        0x35a (size before relaxing)
 .rodata.str1.1
                0x000000008f8875e0       0x5c nand_fdl/common/src/libfdlcommon.o
 .rodata.str1.1
                0x000000008f88763c     0x17b6 property/libproperty.o
                                       0x19d1 (size before relaxing)
 .rodata.str1.1
                0x000000008f888df2       0x35 board/spreadtrum/sp7731gea/libsp7731gea.o(sprd_kp.o)
 .rodata.str1.1
                0x000000008f888e27       0x17 arch/arm/cpu/armv7/sc8830/libsc8830.o(reset.o)
 .rodata.str1.1
                0x000000008f888e3e       0x41 arch/arm/cpu/armv7/sc8830/libsc8830.o(ldo.o)
 .rodata.str1.1
                0x000000008f888e7f       0x51 arch/arm/cpu/armv7/sc8830/libsc8830.o(adc.o)
 .rodata.str1.1
                0x000000008f888ed0       0x25 arch/arm/cpu/armv7/sc8830/libsc8830.o(rtc-sprd.o)
 .rodata.str1.1
                0x000000008f888ef5       0x5a arch/arm/cpu/armv7/sc8830/libsc8830.o(adi.o)
                                         0x8e (size before relaxing)
 .rodata.str1.1
                0x000000008f888f4f      0x103 arch/arm/cpu/armv7/sc8830/libsc8830.o(gpio.o)
                                        0x139 (size before relaxing)
 .rodata.str1.1
                0x0000000000000000       0x27 arch/arm/cpu/armv7/sc8830/libsc8830.o(eic.o)
 .rodata.str1.1
                0x000000008f889052       0x27 arch/arm/cpu/armv7/sc8830/libsc8830.o(otp-helper.o)
 .rodata.str1.1
                0x000000008f889079       0x61 arch/arm/cpu/armv7/sc8830/libsc8830.o(efuse.o)
                                         0x63 (size before relaxing)
 .rodata.str1.1
                0x000000008f8890da       0x2b arch/arm/cpu/armv7/sc8830/libsc8830.o(watchdog_phy_v3.o)
 .rodata.str1.1
                0x000000008f889105       0xbf arch/arm/cpu/armv7/sc8830/libsc8830.o(watchdog_hal.o)
 .rodata.str1.1
                0x000000008f8891c4       0x1f arch/arm/cpu/armv7/sc8830/libsc8830.o(misc.o)
 .rodata.str1.1
                0x000000008f8891e3      0x2d3 arch/arm/cpu/armv7/sc8830/libsc8830.o(dcdc_cal_sc2713s.o)
                                        0x2fb (size before relaxing)
 .rodata.str1.1
                0x000000008f8894b6       0x1b /home/pillar/SC7731/sprd_project/sc7731_u-boot/build/sp7731gea-u-boot/arch/arm/lib/eabi_compat.o
                0x000000008f8894d4                . = ALIGN (0x4)

.data           0x000000008f8894d4     0x514c
 *(.data)
 .data          0x000000008f8894d4        0x0 arch/arm/cpu/armv7/start.o
 .data          0x000000008f8894d4        0x0 arch/arm/cpu/armv7/libarmv7.o
 .data          0x000000008f8894d4       0x20 arch/arm/lib/libarm.o
                0x000000008f8894d4                init_sequence
 .data          0x000000008f8894f4      0xd48 common/libcommon.o
                0x000000008f8894f4                load_addr
                0x000000008f8895a0                op_table
                0x000000008f889608                dp_last_length
                0x000000008f889ae4                default_environment
                0x000000008f889e08                mtdpartbuffer
                0x000000008f88a230                stdio_names
 .data          0x000000008f88a23c        0xc disk/libdisk.o
                0x000000008f88a23c                g_part_device_io
 .data          0x000000008f88a248       0x24 drivers/i2c/libi2c.o
                0x000000008f88a250                phy_fun_v0
 .data          0x000000008f88a26c       0x58 drivers/mmc/libmmc.o
                0x000000008f88a26c                multipliers
                0x000000008f88a2ac                fbase
 .data          0x000000008f88a2c4        0x0 drivers/mtd/libmtd.o
 .data          0x000000008f88a2c4     0x12a8 drivers/mtd/nand/libnand.o
                0x000000008f88a2c4                nand_curr_device
                0x000000008f88acf4                nand_manuf_ids
                0x000000008f88ad44                nand_flash_ids
                0x000000008f88b3f4                maker_table
                0x000000008f88b430                sprd_nand_param_table
                0x000000008f88b50c                hynix_device_table
                0x000000008f88b524                kington_device_table
                0x000000008f88b53c                adata_device_table
                0x000000008f88b554                micron_device_table
 .data          0x000000008f88b56c        0x0 drivers/mtd/ubi/libubi.o
 .data          0x000000008f88b56c        0x0 drivers/pcmcia/libpcmcia.o
 .data          0x000000008f88b56c        0x0 drivers/rtc/librtc.o
 .data          0x000000008f88b56c       0xb0 drivers/serial/libserial.o
                0x000000008f88b56c                gUart1Channel
                0x000000008f88b590                gUart2Channel
                0x000000008f88b5b4                gUart3Channel
                0x000000008f88b5d8                gUart0Channel
                0x000000008f88b5fc                gUart2PortInfo
                0x000000008f88b604                gUart3PortInfo
                0x000000008f88b60c                gUart1PortInfo
                0x000000008f88b614                gUart0PortInfo
 .data          0x000000008f88b61c       0xb8 drivers/sound/codec/libcodec.o
                0x000000008f88b62c                sprd_codec_mixer_debug_str
                0x000000008f88b69c                sprd_codec_pga_debug_str
 .data          0x000000008f88b6d4       0x9c drivers/sound/dai/libdai.o
 .data          0x000000008f88b770        0x0 drivers/sound/libsound.o
 .data          0x000000008f88b770        0x0 drivers/spi/libspi.o
 .data          0x000000008f88b770       0x4c drivers/usb/gadget/dwc_otg/libdwc_otg.o
                0x000000008f88b770                g_dbg_lvl
 .data          0x000000008f88b7bc      0x404 drivers/usb/gadget/libusb_gadget.o
                0x000000008f88b8ac                g_eMMCBuf
 .data          0x000000008f88bbc0        0x0 drivers/video/sprdfb/dsi_1_21a/libsprdfb_dsi.o
 .data          0x000000008f88bbc0     0x16ac drivers/video/sprdfb/lcd/liblcd.o
                0x000000008f88c82c                lcd_nt35516_mipi_spec
                0x000000008f88d1f8                lcd_ssd2075_mipi_spec
 .data          0x000000008f88d26c      0x13c drivers/video/sprdfb/libsprdfb.o
                0x000000008f88d26c                panel_info
                0x000000008f88d280                sprdfb_dispc_ctrl
                0x000000008f88d2a8                sprdfb_mcu_ctrl
                0x000000008f88d2d4                sprdfb_rgb_ctrl
                0x000000008f88d300                sprdfb_mipi_ctrl
                0x000000008f88d32c                sprdfb_i2c_ops
                0x000000008f88d340                spi_int_parm
                0x000000008f88d36c                sprdfb_spi_ops
                0x000000008f88d37c                sprdfb_mipi_ops
 .data          0x000000008f88d3a8       0x28 fs/ext4/libext4fs.o
                0x000000008f88d3b0                ext4fs_indir1_blkno
                0x000000008f88d3b4                ext4fs_indir2_blkno
                0x000000008f88d3b8                ext4fs_indir3_blkno
 .data          0x000000008f88d3d0        0x0 fs/fat/libfat.o
 .data          0x000000008f88d3d0       0x50 fs/ubifs/libubifs.o
 .data          0x000000008f88d420       0x58 fs/yaffs2/libyaffs2.o
                0x000000008f88d458                yaffs_ecc_c_version
                0x000000008f88d45c                yaffsfs_c_version
                0x000000008f88d460                yaffs_guts_c_version
                0x000000008f88d464                yaffs_nand_c_version
                0x000000008f88d468                yaffs_checkptrw_c_version
                0x000000008f88d46c                yaffs_mtdif_c_version
                0x000000008f88d470                yaffs_mtdif2_c_version
 .data          0x000000008f88d478      0x104 lib/libgeneric.o
                0x000000008f88d47c                _ctype
 .data          0x000000008f88d57c        0x0 lib/lzo/liblzo.o
 .data          0x000000008f88d57c       0x24 nand_fdl/common/src/libfdlcommon.o
                0x000000008f88d57c                gUSBChannel
 .data          0x000000008f88d5a0       0x84 property/libproperty.o
                0x000000008f88d5a0                s_boot_func_array
                0x000000008f88d5f0                harsh_data
                0x000000008f88d5f4                spl_data
                0x000000008f88d5f8                rstmode
 .data          0x000000008f88d624        0x0 board/spreadtrum/sp7731gea/libsp7731gea.o(openphone.o)
 .data          0x000000008f88d624        0x6 board/spreadtrum/sp7731gea/libsp7731gea.o(sprd_kp.o)
 .data          0x000000008f88d62a        0x0 board/spreadtrum/sp7731gea/libsp7731gea.o(pinmap-sp8830.o)
 .data          0x000000008f88d62a        0x0 board/spreadtrum/sp7731gea/libsp7731gea.o(ldo_sleep.o)
 .data          0x000000008f88d62a        0x0 arch/arm/cpu/armv7/sc8830/libsc8830.o(mmu_asm.o)
 .data          0x000000008f88d62a        0x0 arch/arm/cpu/armv7/sc8830/libsc8830.o(timer.o)
 .data          0x000000008f88d62a        0x0 arch/arm/cpu/armv7/sc8830/libsc8830.o(reset.o)
 *fill*         0x000000008f88d62a        0x2 00
 .data          0x000000008f88d62c      0x7bc arch/arm/cpu/armv7/sc8830/libsc8830.o(ldo.o)
 .data          0x000000008f88dde8        0x8 arch/arm/cpu/armv7/sc8830/libsc8830.o(chg_phy.o)
                0x000000008f88dde8                adc_voltage_table
 .data          0x000000008f88ddf0        0x0 arch/arm/cpu/armv7/sc8830/libsc8830.o(mmu.o)
 .data          0x000000008f88ddf0        0x0 arch/arm/cpu/armv7/sc8830/libsc8830.o(adc.o)
 .data          0x000000008f88ddf0        0x0 arch/arm/cpu/armv7/sc8830/libsc8830.o(rtc-sprd.o)
 .data          0x000000008f88ddf0        0x0 arch/arm/cpu/armv7/sc8830/libsc8830.o(sec_boot.o)
 .data          0x000000008f88ddf0        0x0 arch/arm/cpu/armv7/sc8830/libsc8830.o(glb.o)
 .data          0x000000008f88ddf0        0x8 arch/arm/cpu/armv7/sc8830/libsc8830.o(adi.o)
                0x000000008f88ddf0                head_p
                0x000000008f88ddf4                tail_p
 .data          0x000000008f88ddf8        0x0 arch/arm/cpu/armv7/sc8830/libsc8830.o(gpio.o)
 .data          0x000000008f88ddf8        0x0 arch/arm/cpu/armv7/sc8830/libsc8830.o(gpio_phy.o)
 .data          0x000000008f88ddf8        0x0 arch/arm/cpu/armv7/sc8830/libsc8830.o(check_reboot.o)
 .data          0x000000008f88ddf8        0x0 arch/arm/cpu/armv7/sc8830/libsc8830.o(eic.o)
 .data          0x000000008f88ddf8        0x0 arch/arm/cpu/armv7/sc8830/libsc8830.o(vibrator_sc2713.o)
 .data          0x000000008f88ddf8        0x0 arch/arm/cpu/armv7/sc8830/libsc8830.o(otp-helper.o)
 .data          0x000000008f88ddf8        0x0 arch/arm/cpu/armv7/sc8830/libsc8830.o(efuse.o)
 .data          0x000000008f88ddf8        0x0 arch/arm/cpu/armv7/sc8830/libsc8830.o(watchdog.o)
 .data          0x000000008f88ddf8        0x0 arch/arm/cpu/armv7/sc8830/libsc8830.o(watchdog_phy_v3.o)
 .data          0x000000008f88ddf8        0x0 arch/arm/cpu/armv7/sc8830/libsc8830.o(watchdog_hal.o)
 .data          0x000000008f88ddf8        0x0 arch/arm/cpu/armv7/sc8830/libsc8830.o(chip_cfg.o)
 .data          0x000000008f88ddf8       0x18 arch/arm/cpu/armv7/sc8830/libsc8830.o(chip_phy_x30g.o)
                0x000000008f88ddf8                lp_cfg
 .data          0x000000008f88de10        0x0 arch/arm/cpu/armv7/sc8830/libsc8830.o(Tshark_boot_cp.o)
 .data          0x000000008f88de10        0x0 arch/arm/cpu/armv7/sc8830/libsc8830.o(misc.o)
 .data          0x000000008f88de10      0x810 arch/arm/cpu/armv7/sc8830/libsc8830.o(dcdc_cal_sc2713s.o)
                0x000000008f88de10                ppvol_para
 .data          0x000000008f88e620        0x0 /home/pillar/SC7731/sprd_project/sc7731_u-boot/build/sp7731gea-u-boot/arch/arm/lib/eabi_compat.o
 .data          0x000000008f88e620        0x0 /usr/lib/gcc/arm-linux-gnueabihf/4.6/libgcc.a(_udivsi3.o)
 .data          0x000000008f88e620        0x0 /usr/lib/gcc/arm-linux-gnueabihf/4.6/libgcc.a(_divsi3.o)
 .data          0x000000008f88e620        0x0 /usr/lib/gcc/arm-linux-gnueabihf/4.6/libgcc.a(_lshrdi3.o)
 .data          0x000000008f88e620        0x0 /usr/lib/gcc/arm-linux-gnueabihf/4.6/libgcc.a(_ashrdi3.o)
 .data          0x000000008f88e620        0x0 /usr/lib/gcc/arm-linux-gnueabihf/4.6/libgcc.a(_ashldi3.o)
 .data          0x000000008f88e620        0x0 /usr/lib/gcc/arm-linux-gnueabihf/4.6/libgcc.a(_dvmd_lnx.o)

.igot.plt       0x000000008f88e620        0x0
 .igot.plt      0x0000000000000000        0x0 arch/arm/cpu/armv7/start.o
                0x000000008f88e620                . = ALIGN (0x4)
                0x000000008f88e620                . = .
                0x000000008f88e620                __u_boot_cmd_start = .

.u_boot_cmd     0x000000008f88e620      0x6a8
 *(.u_boot_cmd)
 .u_boot_cmd    0x000000008f88e620      0x618 common/libcommon.o
                0x000000008f88e620                __u_boot_cmd_bdinfo
                0x000000008f88e638                __u_boot_cmd_reset
                0x000000008f88e650                __u_boot_cmd_go
                0x000000008f88e668                __u_boot_cmd_iminfo
                0x000000008f88e680                __u_boot_cmd_bootd
                0x000000008f88e698                __u_boot_cmd_boot
                0x000000008f88e6b0                __u_boot_cmd_bootm
                0x000000008f88e6c8                __u_boot_cmd_coninfo
                0x000000008f88e6e0                __u_boot_cmd_echo
                0x000000008f88e6f8                __u_boot_cmd_ext4load
                0x000000008f88e710                __u_boot_cmd_ext4ls
                0x000000008f88e728                __u_boot_cmd_ext4write
                0x000000008f88e740                __u_boot_cmd_fatwrite
                0x000000008f88e758                __u_boot_cmd_fatinfo
                0x000000008f88e770                __u_boot_cmd_fatls
                0x000000008f88e788                __u_boot_cmd_fatload
                0x000000008f88e7a0                __u_boot_cmd_question_mark
                0x000000008f88e7b8                __u_boot_cmd_help
                0x000000008f88e7d0                __u_boot_cmd_itest
                0x000000008f88e7e8                __u_boot_cmd_loady
                0x000000008f88e800                __u_boot_cmd_loadb
                0x000000008f88e818                __u_boot_cmd_mtest
                0x000000008f88e830                __u_boot_cmd_loop
                0x000000008f88e848                __u_boot_cmd_base
                0x000000008f88e860                __u_boot_cmd_crc32
                0x000000008f88e878                __u_boot_cmd_cmp
                0x000000008f88e890                __u_boot_cmd_cp
                0x000000008f88e8a8                __u_boot_cmd_mw
                0x000000008f88e8c0                __u_boot_cmd_nm
                0x000000008f88e8d8                __u_boot_cmd_mm
                0x000000008f88e8f0                __u_boot_cmd_md
                0x000000008f88e908                __u_boot_cmd_sleep
                0x000000008f88e920                __u_boot_cmd_mmc
                0x000000008f88e938                __u_boot_cmd_mmcinfo
                0x000000008f88e950                __u_boot_cmd_mtdparts
                0x000000008f88e968                __u_boot_cmd_chpart
                0x000000008f88e980                __u_boot_cmd_nboot
                0x000000008f88e998                __u_boot_cmd_nand
                0x000000008f88e9b0                __u_boot_cmd_run
                0x000000008f88e9c8                __u_boot_cmd_setenv
                0x000000008f88e9e0                __u_boot_cmd_printenv
                0x000000008f88e9f8                __u_boot_cmd_editenv
                0x000000008f88ea10                __u_boot_cmd_env
                0x000000008f88ea28                __u_boot_cmd_source
                0x000000008f88ea40                __u_boot_cmd_ubi
                0x000000008f88ea58                __u_boot_cmd_ubifsload
                0x000000008f88ea70                __u_boot_cmd_ubifsls
                0x000000008f88ea88                __u_boot_cmd_ubifsumount
                0x000000008f88eaa0                __u_boot_cmd_ubifsmount
                0x000000008f88eab8                __u_boot_cmd_version
                0x000000008f88ead0                __u_boot_cmd_imxtract
                0x000000008f88eae8                __u_boot_cmd_ydump
                0x000000008f88eb00                __u_boot_cmd_ymv
                0x000000008f88eb18                __u_boot_cmd_yrm
                0x000000008f88eb30                __u_boot_cmd_yrmdir
                0x000000008f88eb48                __u_boot_cmd_ymkdir
                0x000000008f88eb60                __u_boot_cmd_ywrm
                0x000000008f88eb78                __u_boot_cmd_yrdm
                0x000000008f88eb90                __u_boot_cmd_ywr
                0x000000008f88eba8                __u_boot_cmd_yrd
                0x000000008f88ebc0                __u_boot_cmd_yls_chk
                0x000000008f88ebd8                __u_boot_cmd_yls
                0x000000008f88ebf0                __u_boot_cmd_yumount
                0x000000008f88ec08                __u_boot_cmd_ymount
                0x000000008f88ec20                __u_boot_cmd_cls
 .u_boot_cmd    0x000000008f88ec38       0x60 drivers/sound/libsound.o
                0x000000008f88ec38                __u_boot_cmd_regw
                0x000000008f88ec50                __u_boot_cmd_regr
                0x000000008f88ec68                __u_boot_cmd_audio_iis_fm
                0x000000008f88ec80                __u_boot_cmd_audio_codec
 .u_boot_cmd    0x000000008f88ec98       0x18 drivers/usb/gadget/libusb_gadget.o
                0x000000008f88ec98                __u_boot_cmd_fastboot
 .u_boot_cmd    0x000000008f88ecb0       0x18 property/libproperty.o
                0x000000008f88ecb0                __u_boot_cmd_cboot
                0x000000008f88ecc8                __u_boot_cmd_end = .
                0x000000008f8a0000                . = 0x8f8a0000
                0x000000008f8a0000                . = ALIGN (0x4)

.rel.dyn        0x000000008f8a0000        0x0
                0x000000008f8a0000                __rel_dyn_start = .
 *(.rel*)
 .rel.iplt      0x0000000000000000        0x0 arch/arm/cpu/armv7/start.o
                0x000000008f8a0000                __rel_dyn_end = .

.dynsym         0x000000008f8a0000        0x0
                0x000000008f8a0000                __dynsym_start = .
 *(.dynsym)

.bss            0x000000008f8a0000   0x189364
                0x000000008f8a0000                __bss_start = .
 *(.bss)
 .bss           0x000000008f8a0000        0x0 arch/arm/cpu/armv7/start.o
 .bss           0x000000008f8a0000        0x0 arch/arm/cpu/armv7/libarmv7.o
 .bss           0x000000008f8a0000        0x8 arch/arm/lib/libarm.o
                0x000000008f8a0000                monitor_flash_len
 .bss           0x000000008f8a0008     0x627c common/libcommon.o
                0x000000008f8a0140                his_pad_count
                0x000000008f8a0144                his_pad_char
                0x000000008f8a015d                his_eol
                0x000000008f8a0164                os_data_init
                0x000000008f8a0174                os_data_char
                0x000000008f8a0178                his_quote
                0x000000008f8a017c                send_ptr
                0x000000008f8a0180                send_parms
                0x000000008f8a0198                dp_last_addr
                0x000000008f8a019c                dp_last_size
                0x000000008f8a01a0                mm_last_addr
                0x000000008f8a01a4                mm_last_size
                0x000000008f8a01a8                current_mtd_dev
                0x000000008f8a01ac                devices
                0x000000008f8a01b4                current_mtd_partnum
                0x000000008f8a03c8                mtdids
                0x000000008f8a0528                mem_malloc_brk
                0x000000008f8a052c                mem_malloc_start
                0x000000008f8a0530                mem_malloc_end
                0x000000008f8a056c                env_ptr
                0x000000008f8a0570                lcd_is_enabled
                0x000000008f8a0580                hist_num
                0x000000008f8a0584                hist_lines
                0x000000008f8a5598                hist_list
                0x000000008f8a55e8                console_buffer
                0x000000008f8a5e30                lcd_init_time
                0x000000008f8a5e38                stdio_devices
 *fill*         0x000000008f8a6284        0x4 00
 .bss           0x000000008f8a6288     0x4448 disk/libdisk.o
                0x000000008f8a62c0                g_gpt_entry_block
                0x000000008f8aa2c0                gpt_head
                0x000000008f8aa4c0                pmbr
                0x000000008f8aa6c8                emmc_part_device
 .bss           0x000000008f8aa6d0      0x36c drivers/i2c/libi2c.o
                0x000000008f8aa6d0                g_wait_i2c_int_flag
                0x000000008f8aa6d1                g_i2c_open_flag
                0x000000008f8aa6d4                timetick
                0x000000008f8aa6d8                ret_value
                0x000000008f8aa9dc                __i2c_bus
 *fill*         0x000000008f8aaa3c        0x4 00
 .bss           0x000000008f8aaa40   0x100e50 drivers/mmc/libmmc.o
                0x000000008f8aaab4                aligned_buffer
                0x000000008f8aadc0                s_extcsdbuf
                0x000000008f8ab1c0                emmc_handle
                0x000000008f8ab1e0                s_receivebuf2
                0x000000008f8ab3e0                s_receivebuf1
                0x000000008f8ab5e0                s_sendbuf
                0x000000008f8ab7e4                copybuf
 .bss           0x000000008f9ab890       0x88 drivers/mtd/libmtd.o
                0x000000008f9ab890                mtd_table
                0x000000008f9ab910                mtd_partitions
 .bss           0x000000008f9ab918      0x458 drivers/mtd/nand/libnand.o
                0x000000008f9aba48                nand_info
                0x000000008f9abafc                g_dolphin
 .bss           0x000000008f9abd70      0x9c0 drivers/mtd/ubi/libubi.o
                0x000000008f9abd70                ubi_devices
                0x000000008f9abdf4                ubi_class
 .bss           0x000000008f9ac730        0x0 drivers/pcmcia/libpcmcia.o
 .bss           0x000000008f9ac730        0x0 drivers/rtc/librtc.o
 .bss           0x000000008f9ac730        0x4 drivers/serial/libserial.o
                0x000000008f9ac730                __dl_log_share__
 .bss           0x000000008f9ac734      0x1b4 drivers/sound/codec/libcodec.o
 .bss           0x000000008f9ac8e8        0x0 drivers/sound/dai/libdai.o
 .bss           0x000000008f9ac8e8       0x18 drivers/sound/libsound.o
 .bss           0x000000008f9ac900        0x0 drivers/spi/libspi.o
 .bss           0x000000008f9ac900       0x10 drivers/usb/gadget/dwc_otg/libdwc_otg.o
                0x000000008f9ac900                dwc_otg_device
 .bss           0x000000008f9ac910     0x6250 drivers/usb/gadget/libusb_gadget.o
                0x000000008f9aca88                packet_sent
                0x000000008f9aca8c                packet_received
                0x000000008f9aca90                txn_status
                0x000000008f9acab8                ImageInfo
                0x000000008f9adad0                uefi_part_info
                0x000000008f9b2ad4                usb_serial_configed
                0x000000008f9b2adc                usb_read_done
                0x000000008f9b2ae0                usb_trans_status
                0x000000008f9b2ae4                usb_port_open
                0x000000008f9b2ae8                usb_write_done
                0x000000008f9b2af8                usb_func
                0x000000008f9b2b28                vcom_port
 .bss           0x000000008f9b2b60        0x0 drivers/video/sprdfb/dsi_1_21a/libsprdfb_dsi.o
 .bss           0x000000008f9b2b60        0x0 drivers/video/sprdfb/lcd/liblcd.o
 .bss           0x000000008f9b2b60      0x324 drivers/video/sprdfb/libsprdfb.o
                0x000000008f9b2b84                lcd_panel_cabc_pwm_bl
                0x000000008f9b2b88                console_row
                0x000000008f9b2b8a                console_col
                0x000000008f9b2b8c                lcd_color_bg
                0x000000008f9b2b90                lcd_color_fg
                0x000000008f9b2b94                lcd_line_length
                0x000000008f9b2b98                lcd_console_address
                0x000000008f9b2b9c                lcd_base
 *fill*         0x000000008f9b2e84        0x4 00
 .bss           0x000000008f9b2e88      0x3b8 fs/ext4/libext4fs.o
                0x000000008f9b2e88                ext_fs
                0x000000008f9b2ed0                ext4fs_symlinknest
                0x000000008f9b2ed8                ext4fs_root
                0x000000008f9b2edc                ext4fs_indir1_block
                0x000000008f9b2ee0                ext4fs_indir1_size
                0x000000008f9b2ee4                ext4fs_indir2_block
                0x000000008f9b2ee8                ext4fs_indir2_size
                0x000000008f9b2eec                ext4fs_indir3_block
                0x000000008f9b2ef0                ext4fs_indir3_size
                0x000000008f9b2ef4                g_parent_inode
                0x000000008f9b2ef8                ext4fs_file
                0x000000008f9b2f08                part_offset
                0x000000008f9b2f0c                dirty_block_ptr
                0x000000008f9b309c                journal_ptr
                0x000000008f9b322c                gindex
                0x000000008f9b3230                gd_index
                0x000000008f9b3234                jrnl_blk_idx
 .bss           0x000000008f9b3240    0x3008c fs/fat/libfat.o
                0x000000008f9b32bc                get_vfatname_block
                0x000000008f9c32c4                get_dentfromdir_block
                0x000000008f9d32c8                do_fat_read_block
 .bss           0x000000008f9e32cc      0x118 fs/ubifs/libubifs.o
                0x000000008f9e32cc                ubifs_compressors
                0x000000008f9e33d8                ubifs_sb
                0x000000008f9e33dc                ubifs_infos
 .bss           0x000000008f9e33e4     0x3430 fs/yaffs2/libyaffs2.o
                0x000000008f9e33f0                yaffs_traceMask
                0x000000008f9e3d60                yaffs_wr_attempts
                0x000000008f9e67fc                yaffs_buffer_size
                0x000000008f9e6800                g_BigBUF
                0x000000008f9e6804                code_yaffs_buflen
                0x000000008f9e6808                code_yaffs_onewrite
                0x000000008f9e680c                g_BigSize
                0x000000008f9e6810                g_ReadBufLen
 .bss           0x000000008f9e6814      0x414 lib/libgeneric.o
                0x000000008f9e6c14                errno
                0x000000008f9e6c24                ___strtok
 .bss           0x000000008f9e6c28        0x0 lib/lzo/liblzo.o
 *fill*         0x000000008f9e6c28       0x18 00
 .bss           0x000000008f9e6c40    0x36180 nand_fdl/common/src/libfdlcommon.o
                0x000000008f9e6c40                g_proctab
                0x000000008fa16d28                gFdlUsedChannel
                0x000000008fa1ad80                usb_out_endpoint_buf
                0x000000008fa1cd8c                error_count
 .bss           0x000000008fa1cdc0     0xc4dc property/libproperty.o
                0x000000008fa1d248                load_image_time
                0x000000008fa1d250                g_charger_mode
                0x000000008fa1d254                raw_header
                0x000000008fa1f254                harsh_data_buf
                0x000000008fa1f274                spl_data_buf
                0x000000008fa29274                vbat_buf
 .bss           0x000000008fa2929c        0x0 board/spreadtrum/sp7731gea/libsp7731gea.o(openphone.o)
 .bss           0x000000008fa2929c        0x4 board/spreadtrum/sp7731gea/libsp7731gea.o(sprd_kp.o)
                0x000000008fa2929c                sprd_key_map
 .bss           0x000000008fa292a0        0x0 board/spreadtrum/sp7731gea/libsp7731gea.o(pinmap-sp8830.o)
 .bss           0x000000008fa292a0        0x0 board/spreadtrum/sp7731gea/libsp7731gea.o(ldo_sleep.o)
 .bss           0x000000008fa292a0        0x0 arch/arm/cpu/armv7/sc8830/libsc8830.o(mmu_asm.o)
 .bss           0x000000008fa292a0       0x10 arch/arm/cpu/armv7/sc8830/libsc8830.o(timer.o)
 .bss           0x000000008fa292b0        0x0 arch/arm/cpu/armv7/sc8830/libsc8830.o(reset.o)
 .bss           0x000000008fa292b0        0x0 arch/arm/cpu/armv7/sc8830/libsc8830.o(ldo.o)
 .bss           0x000000008fa292b0        0xc arch/arm/cpu/armv7/sc8830/libsc8830.o(chg_phy.o)
                0x000000008fa292b0                adc_cal_flag
                0x000000008fa292b4                fgu_vol
                0x000000008fa292b8                fgu_cur
 .bss           0x000000008fa292bc        0x4 arch/arm/cpu/armv7/sc8830/libsc8830.o(mmu.o)
                0x000000008fa292bc                g_mmu_page_table
 .bss           0x000000008fa292c0        0x0 arch/arm/cpu/armv7/sc8830/libsc8830.o(adc.o)
 .bss           0x000000008fa292c0        0x0 arch/arm/cpu/armv7/sc8830/libsc8830.o(rtc-sprd.o)
 .bss           0x000000008fa292c0        0x0 arch/arm/cpu/armv7/sc8830/libsc8830.o(sec_boot.o)
 .bss           0x000000008fa292c0        0x0 arch/arm/cpu/armv7/sc8830/libsc8830.o(glb.o)
 .bss           0x000000008fa292c0       0x8c arch/arm/cpu/armv7/sc8830/libsc8830.o(adi.o)
 .bss           0x000000008fa2934c        0x0 arch/arm/cpu/armv7/sc8830/libsc8830.o(gpio.o)
 .bss           0x000000008fa2934c        0x0 arch/arm/cpu/armv7/sc8830/libsc8830.o(gpio_phy.o)
 .bss           0x000000008fa2934c        0x0 arch/arm/cpu/armv7/sc8830/libsc8830.o(check_reboot.o)
 .bss           0x000000008fa2934c        0x0 arch/arm/cpu/armv7/sc8830/libsc8830.o(eic.o)
 .bss           0x000000008fa2934c        0x0 arch/arm/cpu/armv7/sc8830/libsc8830.o(vibrator_sc2713.o)
 .bss           0x000000008fa2934c        0x0 arch/arm/cpu/armv7/sc8830/libsc8830.o(otp-helper.o)
 .bss           0x000000008fa2934c        0x0 arch/arm/cpu/armv7/sc8830/libsc8830.o(efuse.o)
 .bss           0x000000008fa2934c        0x0 arch/arm/cpu/armv7/sc8830/libsc8830.o(watchdog.o)
 .bss           0x000000008fa2934c        0x0 arch/arm/cpu/armv7/sc8830/libsc8830.o(watchdog_phy_v3.o)
 .bss           0x000000008fa2934c        0x0 arch/arm/cpu/armv7/sc8830/libsc8830.o(watchdog_hal.o)
 .bss           0x000000008fa2934c        0x0 arch/arm/cpu/armv7/sc8830/libsc8830.o(chip_cfg.o)
 .bss           0x000000008fa2934c        0x0 arch/arm/cpu/armv7/sc8830/libsc8830.o(chip_phy_x30g.o)
 .bss           0x000000008fa2934c        0x4 arch/arm/cpu/armv7/sc8830/libsc8830.o(Tshark_boot_cp.o)
 .bss           0x000000008fa29350        0x4 arch/arm/cpu/armv7/sc8830/libsc8830.o(misc.o)
 .bss           0x000000008fa29354       0x10 arch/arm/cpu/armv7/sc8830/libsc8830.o(dcdc_cal_sc2713s.o)
 .bss           0x000000008fa29364        0x0 /home/pillar/SC7731/sprd_project/sc7731_u-boot/build/sp7731gea-u-boot/arch/arm/lib/eabi_compat.o
 .bss           0x000000008fa29364        0x0 /usr/lib/gcc/arm-linux-gnueabihf/4.6/libgcc.a(_udivsi3.o)
 .bss           0x000000008fa29364        0x0 /usr/lib/gcc/arm-linux-gnueabihf/4.6/libgcc.a(_divsi3.o)
 .bss           0x000000008fa29364        0x0 /usr/lib/gcc/arm-linux-gnueabihf/4.6/libgcc.a(_lshrdi3.o)
 .bss           0x000000008fa29364        0x0 /usr/lib/gcc/arm-linux-gnueabihf/4.6/libgcc.a(_ashrdi3.o)
 .bss           0x000000008fa29364        0x0 /usr/lib/gcc/arm-linux-gnueabihf/4.6/libgcc.a(_ashldi3.o)
 .bss           0x000000008fa29364        0x0 /usr/lib/gcc/arm-linux-gnueabihf/4.6/libgcc.a(_dvmd_lnx.o)
                0x000000008fa29364                . = ALIGN (0x4)
                0x000000008fa29364                _end = .

/DISCARD/
 *(.dynstr*)
 *(.dynamic*)
 *(.plt*)
 *(.interp*)
 *(.gnu*)
Address of section .text set to 0x8f800000
LOAD arch/arm/cpu/armv7/start.o
START GROUP
LOAD api/libapi.o
LOAD arch/arm/cpu/armv7/libarmv7.o
LOAD arch/arm/cpu/armv7/sc8830/libsc8830.o
LOAD arch/arm/lib/libarm.o
LOAD common/libcommon.o
LOAD disk/libdisk.o
LOAD drivers/bios_emulator/libatibiosemu.o
LOAD drivers/block/libblock.o
LOAD drivers/clk/libclk.o
LOAD drivers/dma/libdma.o
LOAD drivers/fpga/libfpga.o
LOAD drivers/gpio/libgpio.o
LOAD drivers/hwmon/libhwmon.o
LOAD drivers/i2c/libi2c.o
LOAD drivers/input/libinput.o
LOAD drivers/misc/libmisc.o
LOAD drivers/mmc/libmmc.o
LOAD drivers/mtd/libmtd.o
LOAD drivers/mtd/nand/libnand.o
LOAD drivers/mtd/onenand/libonenand.o
LOAD drivers/mtd/spi/libspi_flash.o
LOAD drivers/mtd/ubi/libubi.o
LOAD drivers/net/libnet.o
LOAD drivers/net/phy/libphy.o
LOAD drivers/pci/libpci.o
LOAD drivers/pcmcia/libpcmcia.o
LOAD drivers/power/libpower.o
LOAD drivers/rtc/librtc.o
LOAD drivers/serial/libserial.o
LOAD drivers/sound/codec/libcodec.o
LOAD drivers/sound/dai/libdai.o
LOAD drivers/sound/libsound.o
LOAD drivers/spi/libspi.o
LOAD drivers/twserial/libtws.o
LOAD drivers/usb/gadget/dwc_otg/libdwc_otg.o
LOAD drivers/usb/gadget/libusb_gadget.o
LOAD drivers/usb/host/libusb_host.o
LOAD drivers/usb/musb/libusb_musb.o
LOAD drivers/usb/phy/libusb_phy.o
LOAD drivers/video/libvideo.o
LOAD drivers/video/sprdfb/dsi_1_21a/libsprdfb_dsi.o
LOAD drivers/video/sprdfb/lcd/liblcd.o
LOAD drivers/video/sprdfb/libsprdfb.o
LOAD drivers/watchdog/libwatchdog.o
LOAD fs/cramfs/libcramfs.o
LOAD fs/ext2/libext2fs.o
LOAD fs/ext4/libext4fs.o
LOAD fs/fat/libfat.o
LOAD fs/fdos/libfdos.o
LOAD fs/jffs2/libjffs2.o
LOAD fs/reiserfs/libreiserfs.o
LOAD fs/ubifs/libubifs.o
LOAD fs/yaffs2/libyaffs2.o
LOAD lib/libfdt/libfdt.o
LOAD lib/libgeneric.o
LOAD lib/lzma/liblzma.o
LOAD lib/lzo/liblzo.o
LOAD nand_fdl/common/src/libfdlcommon.o
LOAD net/libnet.o
LOAD post/libpost.o
LOAD property/libproperty.o
LOAD board/spreadtrum/sp7731gea/libsp7731gea.o
END GROUP
LOAD /home/pillar/SC7731/sprd_project/sc7731_u-boot/build/sp7731gea-u-boot/arch/arm/lib/eabi_compat.o
LOAD /usr/lib/gcc/arm-linux-gnueabihf/4.6/libgcc.a
OUTPUT(u-boot elf32-littlearm)

.ARM.attributes
                0x0000000000000000       0x2d
 .ARM.attributes
                0x0000000000000000       0x21 arch/arm/cpu/armv7/start.o
 .ARM.attributes
                0x0000000000000021       0x2f arch/arm/cpu/armv7/libarmv7.o
 .ARM.attributes
                0x0000000000000050       0x2f arch/arm/lib/libarm.o
 .ARM.attributes
                0x000000000000007f       0x2f common/libcommon.o
 .ARM.attributes
                0x00000000000000ae       0x2f disk/libdisk.o
 .ARM.attributes
                0x00000000000000dd       0x2f drivers/i2c/libi2c.o
 .ARM.attributes
                0x000000000000010c       0x2f drivers/mmc/libmmc.o
 .ARM.attributes
                0x000000000000013b       0x2f drivers/mtd/libmtd.o
 .ARM.attributes
                0x000000000000016a       0x2f drivers/mtd/nand/libnand.o
 .ARM.attributes
                0x0000000000000199       0x2f drivers/mtd/ubi/libubi.o
 .ARM.attributes
                0x00000000000001c8       0x2f drivers/pcmcia/libpcmcia.o
 .ARM.attributes
                0x00000000000001f7       0x2f drivers/rtc/librtc.o
 .ARM.attributes
                0x0000000000000226       0x2f drivers/serial/libserial.o
 .ARM.attributes
                0x0000000000000255       0x2f drivers/sound/codec/libcodec.o
 .ARM.attributes
                0x0000000000000284       0x2f drivers/sound/dai/libdai.o
 .ARM.attributes
                0x00000000000002b3       0x2f drivers/sound/libsound.o
 .ARM.attributes
                0x00000000000002e2       0x2f drivers/spi/libspi.o
 .ARM.attributes
                0x0000000000000311       0x2f drivers/usb/gadget/dwc_otg/libdwc_otg.o
 .ARM.attributes
                0x0000000000000340       0x2f drivers/usb/gadget/libusb_gadget.o
 .ARM.attributes
                0x000000000000036f       0x2f drivers/video/sprdfb/dsi_1_21a/libsprdfb_dsi.o
 .ARM.attributes
                0x000000000000039e       0x2f drivers/video/sprdfb/lcd/liblcd.o
 .ARM.attributes
                0x00000000000003cd       0x2f drivers/video/sprdfb/libsprdfb.o
 .ARM.attributes
                0x00000000000003fc       0x2f fs/ext4/libext4fs.o
 .ARM.attributes
                0x000000000000042b       0x2f fs/fat/libfat.o
 .ARM.attributes
                0x000000000000045a       0x2f fs/ubifs/libubifs.o
 .ARM.attributes
                0x0000000000000489       0x2f fs/yaffs2/libyaffs2.o
 .ARM.attributes
                0x00000000000004b8       0x2f lib/libgeneric.o
 .ARM.attributes
                0x00000000000004e7       0x2f lib/lzo/liblzo.o
 .ARM.attributes
                0x0000000000000516       0x2f nand_fdl/common/src/libfdlcommon.o
 .ARM.attributes
                0x0000000000000545       0x2f property/libproperty.o
 .ARM.attributes
                0x0000000000000574       0x2f board/spreadtrum/sp7731gea/libsp7731gea.o(openphone.o)
 .ARM.attributes
                0x00000000000005a3       0x2f board/spreadtrum/sp7731gea/libsp7731gea.o(sprd_kp.o)
 .ARM.attributes
                0x00000000000005d2       0x2f board/spreadtrum/sp7731gea/libsp7731gea.o(pinmap-sp8830.o)
 .ARM.attributes
                0x0000000000000601       0x2f board/spreadtrum/sp7731gea/libsp7731gea.o(ldo_sleep.o)
 .ARM.attributes
                0x0000000000000630       0x21 arch/arm/cpu/armv7/sc8830/libsc8830.o(mmu_asm.o)
 .ARM.attributes
                0x0000000000000651       0x2f arch/arm/cpu/armv7/sc8830/libsc8830.o(timer.o)
 .ARM.attributes
                0x0000000000000680       0x2f arch/arm/cpu/armv7/sc8830/libsc8830.o(reset.o)
 .ARM.attributes
                0x00000000000006af       0x2f arch/arm/cpu/armv7/sc8830/libsc8830.o(ldo.o)
 .ARM.attributes
                0x00000000000006de       0x2f arch/arm/cpu/armv7/sc8830/libsc8830.o(chg_phy.o)
 .ARM.attributes
                0x000000000000070d       0x2f arch/arm/cpu/armv7/sc8830/libsc8830.o(mmu.o)
 .ARM.attributes
                0x000000000000073c       0x2f arch/arm/cpu/armv7/sc8830/libsc8830.o(adc.o)
 .ARM.attributes
                0x000000000000076b       0x2f arch/arm/cpu/armv7/sc8830/libsc8830.o(rtc-sprd.o)
 .ARM.attributes
                0x000000000000079a       0x2f arch/arm/cpu/armv7/sc8830/libsc8830.o(sec_boot.o)
 .ARM.attributes
                0x00000000000007c9       0x2f arch/arm/cpu/armv7/sc8830/libsc8830.o(glb.o)
 .ARM.attributes
                0x00000000000007f8       0x2f arch/arm/cpu/armv7/sc8830/libsc8830.o(adi.o)
 .ARM.attributes
                0x0000000000000827       0x2f arch/arm/cpu/armv7/sc8830/libsc8830.o(gpio.o)
 .ARM.attributes
                0x0000000000000856       0x2f arch/arm/cpu/armv7/sc8830/libsc8830.o(gpio_phy.o)
 .ARM.attributes
                0x0000000000000885       0x2f arch/arm/cpu/armv7/sc8830/libsc8830.o(check_reboot.o)
 .ARM.attributes
                0x00000000000008b4       0x2f arch/arm/cpu/armv7/sc8830/libsc8830.o(eic.o)
 .ARM.attributes
                0x00000000000008e3       0x2f arch/arm/cpu/armv7/sc8830/libsc8830.o(vibrator_sc2713.o)
 .ARM.attributes
                0x0000000000000912       0x2f arch/arm/cpu/armv7/sc8830/libsc8830.o(otp-helper.o)
 .ARM.attributes
                0x0000000000000941       0x2f arch/arm/cpu/armv7/sc8830/libsc8830.o(efuse.o)
 .ARM.attributes
                0x0000000000000970       0x2f arch/arm/cpu/armv7/sc8830/libsc8830.o(watchdog.o)
 .ARM.attributes
                0x000000000000099f       0x2f arch/arm/cpu/armv7/sc8830/libsc8830.o(watchdog_phy_v3.o)
 .ARM.attributes
                0x00000000000009ce       0x2f arch/arm/cpu/armv7/sc8830/libsc8830.o(watchdog_hal.o)
 .ARM.attributes
                0x00000000000009fd       0x2f arch/arm/cpu/armv7/sc8830/libsc8830.o(chip_cfg.o)
 .ARM.attributes
                0x0000000000000a2c       0x2f arch/arm/cpu/armv7/sc8830/libsc8830.o(chip_phy_x30g.o)
 .ARM.attributes
                0x0000000000000a5b       0x2f arch/arm/cpu/armv7/sc8830/libsc8830.o(Tshark_boot_cp.o)
 .ARM.attributes
                0x0000000000000a8a       0x2f arch/arm/cpu/armv7/sc8830/libsc8830.o(misc.o)
 .ARM.attributes
                0x0000000000000ab9       0x2f arch/arm/cpu/armv7/sc8830/libsc8830.o(dcdc_cal_sc2713s.o)
 .ARM.attributes
                0x0000000000000ae8       0x2f /home/pillar/SC7731/sprd_project/sc7731_u-boot/build/sp7731gea-u-boot/arch/arm/lib/eabi_compat.o
 .ARM.attributes
                0x0000000000000b17       0x23 /usr/lib/gcc/arm-linux-gnueabihf/4.6/libgcc.a(_udivsi3.o)
 .ARM.attributes
                0x0000000000000b3a       0x23 /usr/lib/gcc/arm-linux-gnueabihf/4.6/libgcc.a(_divsi3.o)
 .ARM.attributes
                0x0000000000000b5d       0x23 /usr/lib/gcc/arm-linux-gnueabihf/4.6/libgcc.a(_lshrdi3.o)
 .ARM.attributes
                0x0000000000000b80       0x23 /usr/lib/gcc/arm-linux-gnueabihf/4.6/libgcc.a(_ashrdi3.o)
 .ARM.attributes
                0x0000000000000ba3       0x23 /usr/lib/gcc/arm-linux-gnueabihf/4.6/libgcc.a(_ashldi3.o)
 .ARM.attributes
                0x0000000000000bc6       0x23 /usr/lib/gcc/arm-linux-gnueabihf/4.6/libgcc.a(_dvmd_lnx.o)

.comment        0x0000000000000000       0x2a
 .comment       0x0000000000000000       0x2a arch/arm/cpu/armv7/libarmv7.o
                                         0x56 (size before relaxing)
 .comment       0x0000000000000000      0x102 arch/arm/lib/libarm.o
 .comment       0x0000000000000000      0x662 common/libcommon.o
 .comment       0x0000000000000000       0xd7 disk/libdisk.o
 .comment       0x0000000000000000       0xac drivers/i2c/libi2c.o
 .comment       0x0000000000000000      0x158 drivers/mmc/libmmc.o
 .comment       0x0000000000000000       0x81 drivers/mtd/libmtd.o
 .comment       0x0000000000000000      0x12d drivers/mtd/nand/libnand.o
 .comment       0x0000000000000000      0x204 drivers/mtd/ubi/libubi.o
 .comment       0x0000000000000000       0x56 drivers/pcmcia/libpcmcia.o
 .comment       0x0000000000000000       0x2b drivers/rtc/librtc.o
 .comment       0x0000000000000000       0x2b drivers/serial/libserial.o
 .comment       0x0000000000000000       0x2b drivers/sound/codec/libcodec.o
 .comment       0x0000000000000000       0x2b drivers/sound/dai/libdai.o
 .comment       0x0000000000000000       0x56 drivers/sound/libsound.o
 .comment       0x0000000000000000       0x2b drivers/spi/libspi.o
 .comment       0x0000000000000000      0x12d drivers/usb/gadget/dwc_otg/libdwc_otg.o
 .comment       0x0000000000000000      0x102 drivers/usb/gadget/libusb_gadget.o
 .comment       0x0000000000000000       0x81 drivers/video/sprdfb/dsi_1_21a/libsprdfb_dsi.o
 .comment       0x0000000000000000       0x56 drivers/video/sprdfb/lcd/liblcd.o
 .comment       0x0000000000000000      0x1d9 drivers/video/sprdfb/libsprdfb.o
 .comment       0x0000000000000000      0x12d fs/ext4/libext4fs.o
 .comment       0x0000000000000000       0x2b fs/fat/libfat.o
 .comment       0x0000000000000000      0x306 fs/ubifs/libubifs.o
 .comment       0x0000000000000000      0x2b0 fs/yaffs2/libyaffs2.o
 .comment       0x0000000000000000      0x331 lib/libgeneric.o
 .comment       0x0000000000000000       0x2b lib/lzo/liblzo.o
 .comment       0x0000000000000000      0x158 nand_fdl/common/src/libfdlcommon.o
 .comment       0x0000000000000000      0x331 property/libproperty.o
 .comment       0x0000000000000000       0x2b board/spreadtrum/sp7731gea/libsp7731gea.o(openphone.o)
 .comment       0x0000000000000000       0x2b board/spreadtrum/sp7731gea/libsp7731gea.o(sprd_kp.o)
 .comment       0x0000000000000000       0x2b board/spreadtrum/sp7731gea/libsp7731gea.o(pinmap-sp8830.o)
 .comment       0x0000000000000000       0x2b board/spreadtrum/sp7731gea/libsp7731gea.o(ldo_sleep.o)
 .comment       0x0000000000000000       0x2b arch/arm/cpu/armv7/sc8830/libsc8830.o(timer.o)
 .comment       0x0000000000000000       0x2b arch/arm/cpu/armv7/sc8830/libsc8830.o(reset.o)
 .comment       0x0000000000000000       0x2b arch/arm/cpu/armv7/sc8830/libsc8830.o(ldo.o)
 .comment       0x0000000000000000       0x2b arch/arm/cpu/armv7/sc8830/libsc8830.o(chg_phy.o)
 .comment       0x0000000000000000       0x2b arch/arm/cpu/armv7/sc8830/libsc8830.o(mmu.o)
 .comment       0x0000000000000000       0x2b arch/arm/cpu/armv7/sc8830/libsc8830.o(adc.o)
 .comment       0x0000000000000000       0x2b arch/arm/cpu/armv7/sc8830/libsc8830.o(rtc-sprd.o)
 .comment       0x0000000000000000       0x2b arch/arm/cpu/armv7/sc8830/libsc8830.o(sec_boot.o)
 .comment       0x0000000000000000       0x2b arch/arm/cpu/armv7/sc8830/libsc8830.o(glb.o)
 .comment       0x0000000000000000       0x2b arch/arm/cpu/armv7/sc8830/libsc8830.o(adi.o)
 .comment       0x0000000000000000       0x2b arch/arm/cpu/armv7/sc8830/libsc8830.o(gpio.o)
 .comment       0x0000000000000000       0x2b arch/arm/cpu/armv7/sc8830/libsc8830.o(gpio_phy.o)
 .comment       0x0000000000000000       0x2b arch/arm/cpu/armv7/sc8830/libsc8830.o(check_reboot.o)
 .comment       0x0000000000000000       0x2b arch/arm/cpu/armv7/sc8830/libsc8830.o(eic.o)
 .comment       0x0000000000000000       0x2b arch/arm/cpu/armv7/sc8830/libsc8830.o(vibrator_sc2713.o)
 .comment       0x0000000000000000       0x2b arch/arm/cpu/armv7/sc8830/libsc8830.o(otp-helper.o)
 .comment       0x0000000000000000       0x2b arch/arm/cpu/armv7/sc8830/libsc8830.o(efuse.o)
 .comment       0x0000000000000000       0x2b arch/arm/cpu/armv7/sc8830/libsc8830.o(watchdog.o)
 .comment       0x0000000000000000       0x2b arch/arm/cpu/armv7/sc8830/libsc8830.o(watchdog_phy_v3.o)
 .comment       0x0000000000000000       0x2b arch/arm/cpu/armv7/sc8830/libsc8830.o(watchdog_hal.o)
 .comment       0x0000000000000000       0x2b arch/arm/cpu/armv7/sc8830/libsc8830.o(chip_cfg.o)
 .comment       0x0000000000000000       0x2b arch/arm/cpu/armv7/sc8830/libsc8830.o(chip_phy_x30g.o)
 .comment       0x0000000000000000       0x2b arch/arm/cpu/armv7/sc8830/libsc8830.o(Tshark_boot_cp.o)
 .comment       0x0000000000000000       0x2b arch/arm/cpu/armv7/sc8830/libsc8830.o(misc.o)
 .comment       0x0000000000000000       0x2b arch/arm/cpu/armv7/sc8830/libsc8830.o(dcdc_cal_sc2713s.o)
 .comment       0x0000000000000000       0x2b /home/pillar/SC7731/sprd_project/sc7731_u-boot/build/sp7731gea-u-boot/arch/arm/lib/eabi_compat.o

.note.GNU-stack
                0x0000000000000000        0x0
 .note.GNU-stack
                0x0000000000000000        0x0 arch/arm/cpu/armv7/libarmv7.o
 .note.GNU-stack
                0x0000000000000000        0x0 arch/arm/lib/libarm.o
 .note.GNU-stack
                0x0000000000000000        0x0 common/libcommon.o
 .note.GNU-stack
                0x0000000000000000        0x0 disk/libdisk.o
 .note.GNU-stack
                0x0000000000000000        0x0 drivers/i2c/libi2c.o
 .note.GNU-stack
                0x0000000000000000        0x0 drivers/mmc/libmmc.o
 .note.GNU-stack
                0x0000000000000000        0x0 drivers/mtd/libmtd.o
 .note.GNU-stack
                0x0000000000000000        0x0 drivers/mtd/nand/libnand.o
 .note.GNU-stack
                0x0000000000000000        0x0 drivers/mtd/ubi/libubi.o
 .note.GNU-stack
                0x0000000000000000        0x0 drivers/pcmcia/libpcmcia.o
 .note.GNU-stack
                0x0000000000000000        0x0 drivers/rtc/librtc.o
 .note.GNU-stack
                0x0000000000000000        0x0 drivers/serial/libserial.o
 .note.GNU-stack
                0x0000000000000000        0x0 drivers/sound/codec/libcodec.o
 .note.GNU-stack
                0x0000000000000000        0x0 drivers/sound/dai/libdai.o
 .note.GNU-stack
                0x0000000000000000        0x0 drivers/sound/libsound.o
 .note.GNU-stack
                0x0000000000000000        0x0 drivers/spi/libspi.o
 .note.GNU-stack
                0x0000000000000000        0x0 drivers/usb/gadget/dwc_otg/libdwc_otg.o
 .note.GNU-stack
                0x0000000000000000        0x0 drivers/usb/gadget/libusb_gadget.o
 .note.GNU-stack
                0x0000000000000000        0x0 drivers/video/sprdfb/dsi_1_21a/libsprdfb_dsi.o
 .note.GNU-stack
                0x0000000000000000        0x0 drivers/video/sprdfb/lcd/liblcd.o
 .note.GNU-stack
                0x0000000000000000        0x0 drivers/video/sprdfb/libsprdfb.o
 .note.GNU-stack
                0x0000000000000000        0x0 fs/ext4/libext4fs.o
 .note.GNU-stack
                0x0000000000000000        0x0 fs/fat/libfat.o
 .note.GNU-stack
                0x0000000000000000        0x0 fs/ubifs/libubifs.o
 .note.GNU-stack
                0x0000000000000000        0x0 fs/yaffs2/libyaffs2.o
 .note.GNU-stack
                0x0000000000000000        0x0 lib/libgeneric.o
 .note.GNU-stack
                0x0000000000000000        0x0 lib/lzo/liblzo.o
 .note.GNU-stack
                0x0000000000000000        0x0 nand_fdl/common/src/libfdlcommon.o
 .note.GNU-stack
                0x0000000000000000        0x0 property/libproperty.o
 .note.GNU-stack
                0x0000000000000000        0x0 board/spreadtrum/sp7731gea/libsp7731gea.o(openphone.o)
 .note.GNU-stack
                0x0000000000000000        0x0 board/spreadtrum/sp7731gea/libsp7731gea.o(sprd_kp.o)
 .note.GNU-stack
                0x0000000000000000        0x0 board/spreadtrum/sp7731gea/libsp7731gea.o(pinmap-sp8830.o)
 .note.GNU-stack
                0x0000000000000000        0x0 board/spreadtrum/sp7731gea/libsp7731gea.o(ldo_sleep.o)
 .note.GNU-stack
                0x0000000000000000        0x0 arch/arm/cpu/armv7/sc8830/libsc8830.o(timer.o)
 .note.GNU-stack
                0x0000000000000000        0x0 arch/arm/cpu/armv7/sc8830/libsc8830.o(reset.o)
 .note.GNU-stack
                0x0000000000000000        0x0 arch/arm/cpu/armv7/sc8830/libsc8830.o(ldo.o)
 .note.GNU-stack
                0x0000000000000000        0x0 arch/arm/cpu/armv7/sc8830/libsc8830.o(chg_phy.o)
 .note.GNU-stack
                0x0000000000000000        0x0 arch/arm/cpu/armv7/sc8830/libsc8830.o(mmu.o)
 .note.GNU-stack
                0x0000000000000000        0x0 arch/arm/cpu/armv7/sc8830/libsc8830.o(adc.o)
 .note.GNU-stack
                0x0000000000000000        0x0 arch/arm/cpu/armv7/sc8830/libsc8830.o(rtc-sprd.o)
 .note.GNU-stack
                0x0000000000000000        0x0 arch/arm/cpu/armv7/sc8830/libsc8830.o(sec_boot.o)
 .note.GNU-stack
                0x0000000000000000        0x0 arch/arm/cpu/armv7/sc8830/libsc8830.o(glb.o)
 .note.GNU-stack
                0x0000000000000000        0x0 arch/arm/cpu/armv7/sc8830/libsc8830.o(adi.o)
 .note.GNU-stack
                0x0000000000000000        0x0 arch/arm/cpu/armv7/sc8830/libsc8830.o(gpio.o)
 .note.GNU-stack
                0x0000000000000000        0x0 arch/arm/cpu/armv7/sc8830/libsc8830.o(gpio_phy.o)
 .note.GNU-stack
                0x0000000000000000        0x0 arch/arm/cpu/armv7/sc8830/libsc8830.o(check_reboot.o)
 .note.GNU-stack
                0x0000000000000000        0x0 arch/arm/cpu/armv7/sc8830/libsc8830.o(eic.o)
 .note.GNU-stack
                0x0000000000000000        0x0 arch/arm/cpu/armv7/sc8830/libsc8830.o(vibrator_sc2713.o)
 .note.GNU-stack
                0x0000000000000000        0x0 arch/arm/cpu/armv7/sc8830/libsc8830.o(otp-helper.o)
 .note.GNU-stack
                0x0000000000000000        0x0 arch/arm/cpu/armv7/sc8830/libsc8830.o(efuse.o)
 .note.GNU-stack
                0x0000000000000000        0x0 arch/arm/cpu/armv7/sc8830/libsc8830.o(watchdog.o)
 .note.GNU-stack
                0x0000000000000000        0x0 arch/arm/cpu/armv7/sc8830/libsc8830.o(watchdog_phy_v3.o)
 .note.GNU-stack
                0x0000000000000000        0x0 arch/arm/cpu/armv7/sc8830/libsc8830.o(watchdog_hal.o)
 .note.GNU-stack
                0x0000000000000000        0x0 arch/arm/cpu/armv7/sc8830/libsc8830.o(chip_cfg.o)
 .note.GNU-stack
                0x0000000000000000        0x0 arch/arm/cpu/armv7/sc8830/libsc8830.o(chip_phy_x30g.o)
 .note.GNU-stack
                0x0000000000000000        0x0 arch/arm/cpu/armv7/sc8830/libsc8830.o(Tshark_boot_cp.o)
 .note.GNU-stack
                0x0000000000000000        0x0 arch/arm/cpu/armv7/sc8830/libsc8830.o(misc.o)
 .note.GNU-stack
                0x0000000000000000        0x0 arch/arm/cpu/armv7/sc8830/libsc8830.o(dcdc_cal_sc2713s.o)
 .note.GNU-stack
                0x0000000000000000        0x0 /home/pillar/SC7731/sprd_project/sc7731_u-boot/build/sp7731gea-u-boot/arch/arm/lib/eabi_compat.o
 .note.GNU-stack
                0x0000000000000000        0x0 /usr/lib/gcc/arm-linux-gnueabihf/4.6/libgcc.a(_udivsi3.o)
 .note.GNU-stack
                0x0000000000000000        0x0 /usr/lib/gcc/arm-linux-gnueabihf/4.6/libgcc.a(_divsi3.o)
 .note.GNU-stack
                0x0000000000000000        0x0 /usr/lib/gcc/arm-linux-gnueabihf/4.6/libgcc.a(_lshrdi3.o)
 .note.GNU-stack
                0x0000000000000000        0x0 /usr/lib/gcc/arm-linux-gnueabihf/4.6/libgcc.a(_ashrdi3.o)
 .note.GNU-stack
                0x0000000000000000        0x0 /usr/lib/gcc/arm-linux-gnueabihf/4.6/libgcc.a(_ashldi3.o)
 .note.GNU-stack
                0x0000000000000000        0x0 /usr/lib/gcc/arm-linux-gnueabihf/4.6/libgcc.a(_dvmd_lnx.o)

.debug_line     0x0000000000000000    0x2b65b
 .debug_line    0x0000000000000000       0xc9 arch/arm/cpu/armv7/start.o
 .debug_line    0x00000000000000c9       0xeb arch/arm/cpu/armv7/libarmv7.o
 .debug_line    0x00000000000001b4      0x844 arch/arm/lib/libarm.o
 .debug_line    0x00000000000009f8     0x574b common/libcommon.o
 .debug_line    0x0000000000006143      0xa06 disk/libdisk.o
 .debug_line    0x0000000000006b49      0x91a drivers/i2c/libi2c.o
 .debug_line    0x0000000000007463     0x1e8e drivers/mmc/libmmc.o
 .debug_line    0x00000000000092f1      0x8fc drivers/mtd/libmtd.o
 .debug_line    0x0000000000009bed     0x2665 drivers/mtd/nand/libnand.o
 .debug_line    0x000000000000c252     0x3937 drivers/mtd/ubi/libubi.o
 .debug_line    0x000000000000fb89       0x3a drivers/pcmcia/libpcmcia.o
 .debug_line    0x000000000000fbc3       0x1d drivers/rtc/librtc.o
 .debug_line    0x000000000000fbe0      0x21b drivers/serial/libserial.o
 .debug_line    0x000000000000fdfb      0x8a7 drivers/sound/codec/libcodec.o
 .debug_line    0x00000000000106a2      0x479 drivers/sound/dai/libdai.o
 .debug_line    0x0000000000010b1b      0x423 drivers/sound/libsound.o
 .debug_line    0x0000000000010f3e      0x178 drivers/spi/libspi.o
 .debug_line    0x00000000000110b6     0x2bc7 drivers/usb/gadget/dwc_otg/libdwc_otg.o
 .debug_line    0x0000000000013c7d     0x2141 drivers/usb/gadget/libusb_gadget.o
 .debug_line    0x0000000000015dbe      0xcef drivers/video/sprdfb/dsi_1_21a/libsprdfb_dsi.o
 .debug_line    0x0000000000016aad      0x3b5 drivers/video/sprdfb/lcd/liblcd.o
 .debug_line    0x0000000000016e62     0x17e6 drivers/video/sprdfb/libsprdfb.o
 .debug_line    0x0000000000018648     0x1901 fs/ext4/libext4fs.o
 .debug_line    0x0000000000019f49      0xbc8 fs/fat/libfat.o
 .debug_line    0x000000000001ab11     0x5145 fs/ubifs/libubifs.o
 .debug_line    0x000000000001fc56     0x3c94 fs/yaffs2/libyaffs2.o
 .debug_line    0x00000000000238ea     0x268b lib/libgeneric.o
 .debug_line    0x0000000000025f75      0x38e lib/lzo/liblzo.o
 .debug_line    0x0000000000026303      0x95f nand_fdl/common/src/libfdlcommon.o
 .debug_line    0x0000000000026c62     0x1c9e property/libproperty.o
 .debug_line    0x0000000000028900      0x113 board/spreadtrum/sp7731gea/libsp7731gea.o(openphone.o)
 .debug_line    0x0000000000028a13      0x1c5 board/spreadtrum/sp7731gea/libsp7731gea.o(sprd_kp.o)
 .debug_line    0x0000000000028bd8      0x162 board/spreadtrum/sp7731gea/libsp7731gea.o(pinmap-sp8830.o)
 .debug_line    0x0000000000028d3a      0x186 board/spreadtrum/sp7731gea/libsp7731gea.o(ldo_sleep.o)
 .debug_line    0x0000000000028ec0       0xc2 arch/arm/cpu/armv7/sc8830/libsc8830.o(mmu_asm.o)
 .debug_line    0x0000000000028f82      0x1a4 arch/arm/cpu/armv7/sc8830/libsc8830.o(timer.o)
 .debug_line    0x0000000000029126      0x148 arch/arm/cpu/armv7/sc8830/libsc8830.o(reset.o)
 .debug_line    0x000000000002926e      0x1ca arch/arm/cpu/armv7/sc8830/libsc8830.o(ldo.o)
 .debug_line    0x0000000000029438      0x1f1 arch/arm/cpu/armv7/sc8830/libsc8830.o(chg_phy.o)
 .debug_line    0x0000000000029629       0xb2 arch/arm/cpu/armv7/sc8830/libsc8830.o(mmu.o)
 .debug_line    0x00000000000296db      0x1a3 arch/arm/cpu/armv7/sc8830/libsc8830.o(adc.o)
 .debug_line    0x000000000002987e      0x199 arch/arm/cpu/armv7/sc8830/libsc8830.o(rtc-sprd.o)
 .debug_line    0x0000000000029a17      0x212 arch/arm/cpu/armv7/sc8830/libsc8830.o(sec_boot.o)
 .debug_line    0x0000000000029c29       0xa0 arch/arm/cpu/armv7/sc8830/libsc8830.o(glb.o)
 .debug_line    0x0000000000029cc9      0x216 arch/arm/cpu/armv7/sc8830/libsc8830.o(adi.o)
 .debug_line    0x0000000000029edf      0x325 arch/arm/cpu/armv7/sc8830/libsc8830.o(gpio.o)
 .debug_line    0x000000000002a204      0x100 arch/arm/cpu/armv7/sc8830/libsc8830.o(gpio_phy.o)
 .debug_line    0x000000000002a304      0x199 arch/arm/cpu/armv7/sc8830/libsc8830.o(check_reboot.o)
 .debug_line    0x000000000002a49d      0x182 arch/arm/cpu/armv7/sc8830/libsc8830.o(eic.o)
 .debug_line    0x000000000002a61f      0x142 arch/arm/cpu/armv7/sc8830/libsc8830.o(vibrator_sc2713.o)
 .debug_line    0x000000000002a761       0x43 arch/arm/cpu/armv7/sc8830/libsc8830.o(otp-helper.o)
 .debug_line    0x000000000002a7a4      0x103 arch/arm/cpu/armv7/sc8830/libsc8830.o(efuse.o)
 .debug_line    0x000000000002a8a7       0xf5 arch/arm/cpu/armv7/sc8830/libsc8830.o(watchdog.o)
 .debug_line    0x000000000002a99c      0x193 arch/arm/cpu/armv7/sc8830/libsc8830.o(watchdog_phy_v3.o)
 .debug_line    0x000000000002ab2f       0xe8 arch/arm/cpu/armv7/sc8830/libsc8830.o(watchdog_hal.o)
 .debug_line    0x000000000002ac17       0xb7 arch/arm/cpu/armv7/sc8830/libsc8830.o(chip_cfg.o)
 .debug_line    0x000000000002acce      0x269 arch/arm/cpu/armv7/sc8830/libsc8830.o(chip_phy_x30g.o)
 .debug_line    0x000000000002af37       0xc7 arch/arm/cpu/armv7/sc8830/libsc8830.o(Tshark_boot_cp.o)
 .debug_line    0x000000000002affe      0x1a1 arch/arm/cpu/armv7/sc8830/libsc8830.o(misc.o)
 .debug_line    0x000000000002b19f      0x479 arch/arm/cpu/armv7/sc8830/libsc8830.o(dcdc_cal_sc2713s.o)
 .debug_line    0x000000000002b618       0x43 /home/pillar/SC7731/sprd_project/sc7731_u-boot/build/sp7731gea-u-boot/arch/arm/lib/eabi_compat.o

.debug_info     0x0000000000000000    0xef1d4
 .debug_info    0x0000000000000000       0x70 arch/arm/cpu/armv7/start.o
 .debug_info    0x0000000000000070      0x231 arch/arm/cpu/armv7/libarmv7.o
 .debug_info    0x00000000000002a1     0x214d arch/arm/lib/libarm.o
 .debug_info    0x00000000000023ee    0x1717a common/libcommon.o
 .debug_info    0x0000000000019568     0x2c1b disk/libdisk.o
 .debug_info    0x000000000001c183     0x185a drivers/i2c/libi2c.o
 .debug_info    0x000000000001d9dd     0x84fe drivers/mmc/libmmc.o
 .debug_info    0x0000000000025edb     0x321b drivers/mtd/libmtd.o
 .debug_info    0x00000000000290f6     0xc914 drivers/mtd/nand/libnand.o
 .debug_info    0x0000000000035a0a    0x13011 drivers/mtd/ubi/libubi.o
 .debug_info    0x0000000000048a1b       0xe6 drivers/pcmcia/libpcmcia.o
 .debug_info    0x0000000000048b01       0x73 drivers/rtc/librtc.o
 .debug_info    0x0000000000048b74      0x8b5 drivers/serial/libserial.o
 .debug_info    0x0000000000049429     0x4737 drivers/sound/codec/libcodec.o
 .debug_info    0x000000000004db60     0x11fd drivers/sound/dai/libdai.o
 .debug_info    0x000000000004ed5d      0xcee drivers/sound/libsound.o
 .debug_info    0x000000000004fa4b      0x873 drivers/spi/libspi.o
 .debug_info    0x00000000000502be    0x14bc1 drivers/usb/gadget/dwc_otg/libdwc_otg.o
 .debug_info    0x0000000000064e7f     0x974a drivers/usb/gadget/libusb_gadget.o
 .debug_info    0x000000000006e5c9     0x3b68 drivers/video/sprdfb/dsi_1_21a/libsprdfb_dsi.o
 .debug_info    0x0000000000072131     0x187a drivers/video/sprdfb/lcd/liblcd.o
 .debug_info    0x00000000000739ab     0xa1c3 drivers/video/sprdfb/libsprdfb.o
 .debug_info    0x000000000007db6e     0x657e fs/ext4/libext4fs.o
 .debug_info    0x00000000000840ec     0x26c6 fs/fat/libfat.o
 .debug_info    0x00000000000867b2    0x3af4d fs/ubifs/libubifs.o
 .debug_info    0x00000000000c16ff    0x16c36 fs/yaffs2/libyaffs2.o
 .debug_info    0x00000000000d8335     0x4e31 lib/libgeneric.o
 .debug_info    0x00000000000dd166      0x7fb lib/lzo/liblzo.o
 .debug_info    0x00000000000dd961     0x300a nand_fdl/common/src/libfdlcommon.o
 .debug_info    0x00000000000e096b     0x6f23 property/libproperty.o
 .debug_info    0x00000000000e788e      0x326 board/spreadtrum/sp7731gea/libsp7731gea.o(openphone.o)
 .debug_info    0x00000000000e7bb4      0x2bc board/spreadtrum/sp7731gea/libsp7731gea.o(sprd_kp.o)
 .debug_info    0x00000000000e7e70      0x107 board/spreadtrum/sp7731gea/libsp7731gea.o(pinmap-sp8830.o)
 .debug_info    0x00000000000e7f77      0x103 board/spreadtrum/sp7731gea/libsp7731gea.o(ldo_sleep.o)
 .debug_info    0x00000000000e807a       0x79 arch/arm/cpu/armv7/sc8830/libsc8830.o(mmu_asm.o)
 .debug_info    0x00000000000e80f3      0x376 arch/arm/cpu/armv7/sc8830/libsc8830.o(timer.o)
 .debug_info    0x00000000000e8469      0x145 arch/arm/cpu/armv7/sc8830/libsc8830.o(reset.o)
 .debug_info    0x00000000000e85ae      0x77a arch/arm/cpu/armv7/sc8830/libsc8830.o(ldo.o)
 .debug_info    0x00000000000e8d28      0x44d arch/arm/cpu/armv7/sc8830/libsc8830.o(chg_phy.o)
 .debug_info    0x00000000000e9175       0xf2 arch/arm/cpu/armv7/sc8830/libsc8830.o(mmu.o)
 .debug_info    0x00000000000e9267      0x2ef arch/arm/cpu/armv7/sc8830/libsc8830.o(adc.o)
 .debug_info    0x00000000000e9556      0x3ce arch/arm/cpu/armv7/sc8830/libsc8830.o(rtc-sprd.o)
 .debug_info    0x00000000000e9924      0x6ab arch/arm/cpu/armv7/sc8830/libsc8830.o(sec_boot.o)
 .debug_info    0x00000000000e9fcf      0x1d0 arch/arm/cpu/armv7/sc8830/libsc8830.o(glb.o)
 .debug_info    0x00000000000ea19f      0x610 arch/arm/cpu/armv7/sc8830/libsc8830.o(adi.o)
 .debug_info    0x00000000000ea7af      0xcff arch/arm/cpu/armv7/sc8830/libsc8830.o(gpio.o)
 .debug_info    0x00000000000eb4ae      0x138 arch/arm/cpu/armv7/sc8830/libsc8830.o(gpio_phy.o)
 .debug_info    0x00000000000eb5e6      0x374 arch/arm/cpu/armv7/sc8830/libsc8830.o(check_reboot.o)
 .debug_info    0x00000000000eb95a      0x52e arch/arm/cpu/armv7/sc8830/libsc8830.o(eic.o)
 .debug_info    0x00000000000ebe88      0x1c1 arch/arm/cpu/armv7/sc8830/libsc8830.o(vibrator_sc2713.o)
 .debug_info    0x00000000000ec049       0xe2 arch/arm/cpu/armv7/sc8830/libsc8830.o(otp-helper.o)
 .debug_info    0x00000000000ec12b      0x2e1 arch/arm/cpu/armv7/sc8830/libsc8830.o(efuse.o)
 .debug_info    0x00000000000ec40c      0x1e6 arch/arm/cpu/armv7/sc8830/libsc8830.o(watchdog.o)
 .debug_info    0x00000000000ec5f2      0x32a arch/arm/cpu/armv7/sc8830/libsc8830.o(watchdog_phy_v3.o)
 .debug_info    0x00000000000ec91c      0x2f5 arch/arm/cpu/armv7/sc8830/libsc8830.o(watchdog_hal.o)
 .debug_info    0x00000000000ecc11      0x16a arch/arm/cpu/armv7/sc8830/libsc8830.o(chip_cfg.o)
 .debug_info    0x00000000000ecd7b      0x674 arch/arm/cpu/armv7/sc8830/libsc8830.o(chip_phy_x30g.o)
 .debug_info    0x00000000000ed3ef       0xef arch/arm/cpu/armv7/sc8830/libsc8830.o(Tshark_boot_cp.o)
 .debug_info    0x00000000000ed4de      0x425 arch/arm/cpu/armv7/sc8830/libsc8830.o(misc.o)
 .debug_info    0x00000000000ed903     0x181d arch/arm/cpu/armv7/sc8830/libsc8830.o(dcdc_cal_sc2713s.o)
 .debug_info    0x00000000000ef120       0xb4 /home/pillar/SC7731/sprd_project/sc7731_u-boot/build/sp7731gea-u-boot/arch/arm/lib/eabi_compat.o

.debug_abbrev   0x0000000000000000    0x21aa4
 .debug_abbrev  0x0000000000000000       0x14 arch/arm/cpu/armv7/start.o
 .debug_abbrev  0x0000000000000014      0x12d arch/arm/cpu/armv7/libarmv7.o
 .debug_abbrev  0x0000000000000141      0x96c arch/arm/lib/libarm.o
 .debug_abbrev  0x0000000000000aad     0x4a54 common/libcommon.o
 .debug_abbrev  0x0000000000005501      0xaf0 disk/libdisk.o
 .debug_abbrev  0x0000000000005ff1      0x715 drivers/i2c/libi2c.o
 .debug_abbrev  0x0000000000006706     0x16cb drivers/mmc/libmmc.o
 .debug_abbrev  0x0000000000007dd1      0x6f4 drivers/mtd/libmtd.o
 .debug_abbrev  0x00000000000084c5     0x14b1 drivers/mtd/nand/libnand.o
 .debug_abbrev  0x0000000000009976     0x24ad drivers/mtd/ubi/libubi.o
 .debug_abbrev  0x000000000000be23       0x54 drivers/pcmcia/libpcmcia.o
 .debug_abbrev  0x000000000000be77       0x2a drivers/rtc/librtc.o
 .debug_abbrev  0x000000000000bea1      0x2d0 drivers/serial/libserial.o
 .debug_abbrev  0x000000000000c171      0x4b4 drivers/sound/codec/libcodec.o
 .debug_abbrev  0x000000000000c625      0x3f0 drivers/sound/dai/libdai.o
 .debug_abbrev  0x000000000000ca15      0x4c8 drivers/sound/libsound.o
 .debug_abbrev  0x000000000000cedd      0x206 drivers/spi/libspi.o
 .debug_abbrev  0x000000000000d0e3     0x1bdb drivers/usb/gadget/dwc_otg/libdwc_otg.o
 .debug_abbrev  0x000000000000ecbe     0x13c5 drivers/usb/gadget/libusb_gadget.o
 .debug_abbrev  0x0000000000010083      0x771 drivers/video/sprdfb/dsi_1_21a/libsprdfb_dsi.o
 .debug_abbrev  0x00000000000107f4      0x35c drivers/video/sprdfb/lcd/liblcd.o
 .debug_abbrev  0x0000000000010b50     0x1cf8 drivers/video/sprdfb/libsprdfb.o
 .debug_abbrev  0x0000000000012848     0x10a7 fs/ext4/libext4fs.o
 .debug_abbrev  0x00000000000138ef      0x3ef fs/fat/libfat.o
 .debug_abbrev  0x0000000000013cde     0x434d fs/ubifs/libubifs.o
 .debug_abbrev  0x000000000001802b     0x286b fs/yaffs2/libyaffs2.o
 .debug_abbrev  0x000000000001a896     0x18f6 lib/libgeneric.o
 .debug_abbrev  0x000000000001c18c      0x1da lib/lzo/liblzo.o
 .debug_abbrev  0x000000000001c366      0xc2e nand_fdl/common/src/libfdlcommon.o
 .debug_abbrev  0x000000000001cf94     0x1e1b property/libproperty.o
 .debug_abbrev  0x000000000001edaf      0x113 board/spreadtrum/sp7731gea/libsp7731gea.o(openphone.o)
 .debug_abbrev  0x000000000001eec2      0x199 board/spreadtrum/sp7731gea/libsp7731gea.o(sprd_kp.o)
 .debug_abbrev  0x000000000001f05b       0xa1 board/spreadtrum/sp7731gea/libsp7731gea.o(pinmap-sp8830.o)
 .debug_abbrev  0x000000000001f0fc       0xa4 board/spreadtrum/sp7731gea/libsp7731gea.o(ldo_sleep.o)
 .debug_abbrev  0x000000000001f1a0       0x14 arch/arm/cpu/armv7/sc8830/libsc8830.o(mmu_asm.o)
 .debug_abbrev  0x000000000001f1b4      0x1a2 arch/arm/cpu/armv7/sc8830/libsc8830.o(timer.o)
 .debug_abbrev  0x000000000001f356       0xf2 arch/arm/cpu/armv7/sc8830/libsc8830.o(reset.o)
 .debug_abbrev  0x000000000001f448      0x223 arch/arm/cpu/armv7/sc8830/libsc8830.o(ldo.o)
 .debug_abbrev  0x000000000001f66b      0x1d8 arch/arm/cpu/armv7/sc8830/libsc8830.o(chg_phy.o)
 .debug_abbrev  0x000000000001f843       0xa3 arch/arm/cpu/armv7/sc8830/libsc8830.o(mmu.o)
 .debug_abbrev  0x000000000001f8e6      0x15d arch/arm/cpu/armv7/sc8830/libsc8830.o(adc.o)
 .debug_abbrev  0x000000000001fa43      0x111 arch/arm/cpu/armv7/sc8830/libsc8830.o(rtc-sprd.o)
 .debug_abbrev  0x000000000001fb54      0x209 arch/arm/cpu/armv7/sc8830/libsc8830.o(sec_boot.o)
 .debug_abbrev  0x000000000001fd5d       0xbf arch/arm/cpu/armv7/sc8830/libsc8830.o(glb.o)
 .debug_abbrev  0x000000000001fe1c      0x26c arch/arm/cpu/armv7/sc8830/libsc8830.o(adi.o)
 .debug_abbrev  0x0000000000020088      0x34f arch/arm/cpu/armv7/sc8830/libsc8830.o(gpio.o)
 .debug_abbrev  0x00000000000203d7       0xc6 arch/arm/cpu/armv7/sc8830/libsc8830.o(gpio_phy.o)
 .debug_abbrev  0x000000000002049d      0x188 arch/arm/cpu/armv7/sc8830/libsc8830.o(check_reboot.o)
 .debug_abbrev  0x0000000000020625      0x1f2 arch/arm/cpu/armv7/sc8830/libsc8830.o(eic.o)
 .debug_abbrev  0x0000000000020817      0x117 arch/arm/cpu/armv7/sc8830/libsc8830.o(vibrator_sc2713.o)
 .debug_abbrev  0x000000000002092e       0x9d arch/arm/cpu/armv7/sc8830/libsc8830.o(otp-helper.o)
 .debug_abbrev  0x00000000000209cb      0x1bc arch/arm/cpu/armv7/sc8830/libsc8830.o(efuse.o)
 .debug_abbrev  0x0000000000020b87       0xef arch/arm/cpu/armv7/sc8830/libsc8830.o(watchdog.o)
 .debug_abbrev  0x0000000000020c76      0x1bd arch/arm/cpu/armv7/sc8830/libsc8830.o(watchdog_phy_v3.o)
 .debug_abbrev  0x0000000000020e33      0x11a arch/arm/cpu/armv7/sc8830/libsc8830.o(watchdog_hal.o)
 .debug_abbrev  0x0000000000020f4d       0xcd arch/arm/cpu/armv7/sc8830/libsc8830.o(chip_cfg.o)
 .debug_abbrev  0x000000000002101a      0x34a arch/arm/cpu/armv7/sc8830/libsc8830.o(chip_phy_x30g.o)
 .debug_abbrev  0x0000000000021364       0x6f arch/arm/cpu/armv7/sc8830/libsc8830.o(Tshark_boot_cp.o)
 .debug_abbrev  0x00000000000213d3      0x26d arch/arm/cpu/armv7/sc8830/libsc8830.o(misc.o)
 .debug_abbrev  0x0000000000021640      0x3fd arch/arm/cpu/armv7/sc8830/libsc8830.o(dcdc_cal_sc2713s.o)
 .debug_abbrev  0x0000000000021a3d       0x67 /home/pillar/SC7731/sprd_project/sc7731_u-boot/build/sp7731gea-u-boot/arch/arm/lib/eabi_compat.o

.debug_aranges  0x0000000000000000     0x1d48
 .debug_aranges
                0x0000000000000000       0x20 arch/arm/cpu/armv7/start.o
 .debug_aranges
                0x0000000000000020       0x40 arch/arm/cpu/armv7/libarmv7.o
 .debug_aranges
                0x0000000000000060       0xc0 arch/arm/lib/libarm.o
 .debug_aranges
                0x0000000000000120      0x480 common/libcommon.o
 .debug_aranges
                0x00000000000005a0       0xa0 disk/libdisk.o
 .debug_aranges
                0x0000000000000640       0x60 drivers/i2c/libi2c.o
 .debug_aranges
                0x00000000000006a0      0x108 drivers/mmc/libmmc.o
 .debug_aranges
                0x00000000000007a8       0x60 drivers/mtd/libmtd.o
 .debug_aranges
                0x0000000000000808       0xc0 drivers/mtd/nand/libnand.o
 .debug_aranges
                0x00000000000008c8      0x160 drivers/mtd/ubi/libubi.o
 .debug_aranges
                0x0000000000000a28       0x20 drivers/serial/libserial.o
 .debug_aranges
                0x0000000000000a48       0x20 drivers/sound/codec/libcodec.o
 .debug_aranges
                0x0000000000000a68       0x20 drivers/sound/dai/libdai.o
 .debug_aranges
                0x0000000000000a88       0x40 drivers/sound/libsound.o
 .debug_aranges
                0x0000000000000ac8       0x20 drivers/spi/libspi.o
 .debug_aranges
                0x0000000000000ae8       0xe0 drivers/usb/gadget/dwc_otg/libdwc_otg.o
 .debug_aranges
                0x0000000000000bc8       0xc0 drivers/usb/gadget/libusb_gadget.o
 .debug_aranges
                0x0000000000000c88       0x60 drivers/video/sprdfb/dsi_1_21a/libsprdfb_dsi.o
 .debug_aranges
                0x0000000000000ce8       0x40 drivers/video/sprdfb/lcd/liblcd.o
 .debug_aranges
                0x0000000000000d28      0x160 drivers/video/sprdfb/libsprdfb.o
 .debug_aranges
                0x0000000000000e88       0xe0 fs/ext4/libext4fs.o
 .debug_aranges
                0x0000000000000f68       0x20 fs/fat/libfat.o
 .debug_aranges
                0x0000000000000f88      0x220 fs/ubifs/libubifs.o
 .debug_aranges
                0x00000000000011a8      0x200 fs/yaffs2/libyaffs2.o
 .debug_aranges
                0x00000000000013a8      0x220 lib/libgeneric.o
 .debug_aranges
                0x00000000000015c8       0x20 lib/lzo/liblzo.o
 .debug_aranges
                0x00000000000015e8      0x100 nand_fdl/common/src/libfdlcommon.o
 .debug_aranges
                0x00000000000016e8      0x280 property/libproperty.o
 .debug_aranges
                0x0000000000001968       0x20 board/spreadtrum/sp7731gea/libsp7731gea.o(openphone.o)
 .debug_aranges
                0x0000000000001988       0x20 board/spreadtrum/sp7731gea/libsp7731gea.o(sprd_kp.o)
 .debug_aranges
                0x00000000000019a8       0x20 board/spreadtrum/sp7731gea/libsp7731gea.o(pinmap-sp8830.o)
 .debug_aranges
                0x00000000000019c8       0x20 board/spreadtrum/sp7731gea/libsp7731gea.o(ldo_sleep.o)
 .debug_aranges
                0x00000000000019e8       0x20 arch/arm/cpu/armv7/sc8830/libsc8830.o(mmu_asm.o)
 .debug_aranges
                0x0000000000001a08       0x20 arch/arm/cpu/armv7/sc8830/libsc8830.o(timer.o)
 .debug_aranges
                0x0000000000001a28       0x20 arch/arm/cpu/armv7/sc8830/libsc8830.o(reset.o)
 .debug_aranges
                0x0000000000001a48       0x20 arch/arm/cpu/armv7/sc8830/libsc8830.o(ldo.o)
 .debug_aranges
                0x0000000000001a68       0x20 arch/arm/cpu/armv7/sc8830/libsc8830.o(chg_phy.o)
 .debug_aranges
                0x0000000000001a88       0x20 arch/arm/cpu/armv7/sc8830/libsc8830.o(mmu.o)
 .debug_aranges
                0x0000000000001aa8       0x20 arch/arm/cpu/armv7/sc8830/libsc8830.o(adc.o)
 .debug_aranges
                0x0000000000001ac8       0x20 arch/arm/cpu/armv7/sc8830/libsc8830.o(rtc-sprd.o)
 .debug_aranges
                0x0000000000001ae8       0x20 arch/arm/cpu/armv7/sc8830/libsc8830.o(sec_boot.o)
 .debug_aranges
                0x0000000000001b08       0x20 arch/arm/cpu/armv7/sc8830/libsc8830.o(glb.o)
 .debug_aranges
                0x0000000000001b28       0x20 arch/arm/cpu/armv7/sc8830/libsc8830.o(adi.o)
 .debug_aranges
                0x0000000000001b48       0x20 arch/arm/cpu/armv7/sc8830/libsc8830.o(gpio.o)
 .debug_aranges
                0x0000000000001b68       0x20 arch/arm/cpu/armv7/sc8830/libsc8830.o(gpio_phy.o)
 .debug_aranges
                0x0000000000001b88       0x20 arch/arm/cpu/armv7/sc8830/libsc8830.o(check_reboot.o)
 .debug_aranges
                0x0000000000001ba8       0x20 arch/arm/cpu/armv7/sc8830/libsc8830.o(eic.o)
 .debug_aranges
                0x0000000000001bc8       0x20 arch/arm/cpu/armv7/sc8830/libsc8830.o(vibrator_sc2713.o)
 .debug_aranges
                0x0000000000001be8       0x20 arch/arm/cpu/armv7/sc8830/libsc8830.o(otp-helper.o)
 .debug_aranges
                0x0000000000001c08       0x20 arch/arm/cpu/armv7/sc8830/libsc8830.o(efuse.o)
 .debug_aranges
                0x0000000000001c28       0x20 arch/arm/cpu/armv7/sc8830/libsc8830.o(watchdog.o)
 .debug_aranges
                0x0000000000001c48       0x20 arch/arm/cpu/armv7/sc8830/libsc8830.o(watchdog_phy_v3.o)
 .debug_aranges
                0x0000000000001c68       0x20 arch/arm/cpu/armv7/sc8830/libsc8830.o(watchdog_hal.o)
 .debug_aranges
                0x0000000000001c88       0x20 arch/arm/cpu/armv7/sc8830/libsc8830.o(chip_cfg.o)
 .debug_aranges
                0x0000000000001ca8       0x20 arch/arm/cpu/armv7/sc8830/libsc8830.o(chip_phy_x30g.o)
 .debug_aranges
                0x0000000000001cc8       0x20 arch/arm/cpu/armv7/sc8830/libsc8830.o(Tshark_boot_cp.o)
 .debug_aranges
                0x0000000000001ce8       0x20 arch/arm/cpu/armv7/sc8830/libsc8830.o(misc.o)
 .debug_aranges
                0x0000000000001d08       0x20 arch/arm/cpu/armv7/sc8830/libsc8830.o(dcdc_cal_sc2713s.o)
 .debug_aranges
                0x0000000000001d28       0x20 /home/pillar/SC7731/sprd_project/sc7731_u-boot/build/sp7731gea-u-boot/arch/arm/lib/eabi_compat.o

.debug_frame    0x0000000000000000    0x110ec
 .debug_frame   0x0000000000000000       0x78 arch/arm/cpu/armv7/libarmv7.o
 .debug_frame   0x0000000000000078      0x398 arch/arm/lib/libarm.o
 .debug_frame   0x0000000000000410     0x1d10 common/libcommon.o
 .debug_frame   0x0000000000002120      0x54c disk/libdisk.o
 .debug_frame   0x000000000000266c      0x2c0 drivers/i2c/libi2c.o
 .debug_frame   0x000000000000292c      0xcd8 drivers/mmc/libmmc.o
 .debug_frame   0x0000000000003604      0x33c drivers/mtd/libmtd.o
 .debug_frame   0x0000000000003940      0xd50 drivers/mtd/nand/libnand.o
 .debug_frame   0x0000000000004690      0xd2c drivers/mtd/ubi/libubi.o
 .debug_frame   0x00000000000053bc      0x138 drivers/serial/libserial.o
 .debug_frame   0x00000000000054f4      0x7fc drivers/sound/codec/libcodec.o
 .debug_frame   0x0000000000005cf0      0x358 drivers/sound/dai/libdai.o
 .debug_frame   0x0000000000006048      0x130 drivers/sound/libsound.o
 .debug_frame   0x0000000000006178      0x130 drivers/spi/libspi.o
 .debug_frame   0x00000000000062a8     0x1fd8 drivers/usb/gadget/dwc_otg/libdwc_otg.o
 .debug_frame   0x0000000000008280      0xc64 drivers/usb/gadget/libusb_gadget.o
 .debug_frame   0x0000000000008ee4     0x1084 drivers/video/sprdfb/dsi_1_21a/libsprdfb_dsi.o
 .debug_frame   0x0000000000009f68       0xb0 drivers/video/sprdfb/lcd/liblcd.o
 .debug_frame   0x000000000000a018      0x978 drivers/video/sprdfb/libsprdfb.o
 .debug_frame   0x000000000000a990      0x780 fs/ext4/libext4fs.o
 .debug_frame   0x000000000000b110      0x3a4 fs/fat/libfat.o
 .debug_frame   0x000000000000b4b4     0x1244 fs/ubifs/libubifs.o
 .debug_frame   0x000000000000c6f8     0x1ac8 fs/yaffs2/libyaffs2.o
 .debug_frame   0x000000000000e1c0      0xb38 lib/libgeneric.o
 .debug_frame   0x000000000000ecf8       0x80 lib/lzo/liblzo.o
 .debug_frame   0x000000000000ed78      0x47c nand_fdl/common/src/libfdlcommon.o
 .debug_frame   0x000000000000f1f4      0xc7c property/libproperty.o
 .debug_frame   0x000000000000fe70       0x58 board/spreadtrum/sp7731gea/libsp7731gea.o(openphone.o)
 .debug_frame   0x000000000000fec8       0x74 board/spreadtrum/sp7731gea/libsp7731gea.o(sprd_kp.o)
 .debug_frame   0x000000000000ff3c       0x20 board/spreadtrum/sp7731gea/libsp7731gea.o(pinmap-sp8830.o)
 .debug_frame   0x000000000000ff5c       0x38 board/spreadtrum/sp7731gea/libsp7731gea.o(ldo_sleep.o)
 .debug_frame   0x000000000000ff94       0xd8 arch/arm/cpu/armv7/sc8830/libsc8830.o(timer.o)
 .debug_frame   0x000000000001006c       0x40 arch/arm/cpu/armv7/sc8830/libsc8830.o(reset.o)
 .debug_frame   0x00000000000100ac       0xdc arch/arm/cpu/armv7/sc8830/libsc8830.o(ldo.o)
 .debug_frame   0x0000000000010188      0x104 arch/arm/cpu/armv7/sc8830/libsc8830.o(chg_phy.o)
 .debug_frame   0x000000000001028c       0x28 arch/arm/cpu/armv7/sc8830/libsc8830.o(mmu.o)
 .debug_frame   0x00000000000102b4       0x84 arch/arm/cpu/armv7/sc8830/libsc8830.o(adc.o)
 .debug_frame   0x0000000000010338      0x148 arch/arm/cpu/armv7/sc8830/libsc8830.o(rtc-sprd.o)
 .debug_frame   0x0000000000010480       0xa8 arch/arm/cpu/armv7/sc8830/libsc8830.o(sec_boot.o)
 .debug_frame   0x0000000000010528       0x50 arch/arm/cpu/armv7/sc8830/libsc8830.o(glb.o)
 .debug_frame   0x0000000000010578       0xf8 arch/arm/cpu/armv7/sc8830/libsc8830.o(adi.o)
 .debug_frame   0x0000000000010670      0x124 arch/arm/cpu/armv7/sc8830/libsc8830.o(gpio.o)
 .debug_frame   0x0000000000010794       0x20 arch/arm/cpu/armv7/sc8830/libsc8830.o(gpio_phy.o)
 .debug_frame   0x00000000000107b4       0xb4 arch/arm/cpu/armv7/sc8830/libsc8830.o(check_reboot.o)
 .debug_frame   0x0000000000010868       0x84 arch/arm/cpu/armv7/sc8830/libsc8830.o(eic.o)
 .debug_frame   0x00000000000108ec       0x44 arch/arm/cpu/armv7/sc8830/libsc8830.o(vibrator_sc2713.o)
 .debug_frame   0x0000000000010930       0x28 arch/arm/cpu/armv7/sc8830/libsc8830.o(otp-helper.o)
 .debug_frame   0x0000000000010958       0xac arch/arm/cpu/armv7/sc8830/libsc8830.o(efuse.o)
 .debug_frame   0x0000000000010a04       0xa0 arch/arm/cpu/armv7/sc8830/libsc8830.o(watchdog.o)
 .debug_frame   0x0000000000010aa4       0x6c arch/arm/cpu/armv7/sc8830/libsc8830.o(watchdog_phy_v3.o)
 .debug_frame   0x0000000000010b10       0xd8 arch/arm/cpu/armv7/sc8830/libsc8830.o(watchdog_hal.o)
 .debug_frame   0x0000000000010be8       0x30 arch/arm/cpu/armv7/sc8830/libsc8830.o(chip_cfg.o)
 .debug_frame   0x0000000000010c18      0x158 arch/arm/cpu/armv7/sc8830/libsc8830.o(chip_phy_x30g.o)
 .debug_frame   0x0000000000010d70       0x50 arch/arm/cpu/armv7/sc8830/libsc8830.o(Tshark_boot_cp.o)
 .debug_frame   0x0000000000010dc0       0xd8 arch/arm/cpu/armv7/sc8830/libsc8830.o(misc.o)
 .debug_frame   0x0000000000010e98      0x21c arch/arm/cpu/armv7/sc8830/libsc8830.o(dcdc_cal_sc2713s.o)
 .debug_frame   0x00000000000110b4       0x38 /home/pillar/SC7731/sprd_project/sc7731_u-boot/build/sp7731gea-u-boot/arch/arm/lib/eabi_compat.o

.debug_str      0x0000000000000000    0x226a1
 .debug_str     0x0000000000000000      0x122 arch/arm/cpu/armv7/libarmv7.o
                                        0x246 (size before relaxing)
 .debug_str     0x0000000000000122      0x8f8 arch/arm/lib/libarm.o
                                       0x12cc (size before relaxing)
 .debug_str     0x0000000000000a1a     0x4109 common/libcommon.o
                                       0x9b32 (size before relaxing)
 .debug_str     0x0000000000004b23      0x969 disk/libdisk.o
                                       0x177b (size before relaxing)
 .debug_str     0x000000000000548c      0x514 drivers/i2c/libi2c.o
                                        0xc49 (size before relaxing)
 .debug_str     0x00000000000059a0     0x2bf4 drivers/mmc/libmmc.o
                                       0x4adc (size before relaxing)
 .debug_str     0x0000000000008594      0x3af drivers/mtd/libmtd.o
                                       0x1475 (size before relaxing)
 .debug_str     0x0000000000008943     0x1472 drivers/mtd/nand/libnand.o
                                       0x4418 (size before relaxing)
 .debug_str     0x0000000000009db5      0xe16 drivers/mtd/ubi/libubi.o
                                       0x76e9 (size before relaxing)
 .debug_str     0x000000000000abcb       0x5b drivers/pcmcia/libpcmcia.o
                                        0x1c3 (size before relaxing)
 .debug_str     0x000000000000ac26       0x42 drivers/rtc/librtc.o
                                         0xd7 (size before relaxing)
 .debug_str     0x000000000000ac68      0x1cd drivers/serial/libserial.o
                                        0x3ef (size before relaxing)
 .debug_str     0x000000000000ae35     0x12c0 drivers/sound/codec/libcodec.o
                                       0x1787 (size before relaxing)
 .debug_str     0x000000000000c0f5      0x5b0 drivers/sound/dai/libdai.o
                                        0x79a (size before relaxing)
 .debug_str     0x000000000000c6a5      0x344 drivers/sound/libsound.o
                                        0x966 (size before relaxing)
 .debug_str     0x000000000000c9e9      0x3b6 drivers/spi/libspi.o
                                        0x4a5 (size before relaxing)
 .debug_str     0x000000000000cd9f     0x4659 drivers/usb/gadget/dwc_otg/libdwc_otg.o
                                       0xa338 (size before relaxing)
 .debug_str     0x00000000000113f8     0x1965 drivers/usb/gadget/libusb_gadget.o
                                       0x364e (size before relaxing)
 .debug_str     0x0000000000012d5d     0x1d7b drivers/video/sprdfb/dsi_1_21a/libsprdfb_dsi.o
                                       0x28f8 (size before relaxing)
 .debug_str     0x0000000000014ad8      0x600 drivers/video/sprdfb/lcd/liblcd.o
                                        0xe99 (size before relaxing)
 .debug_str     0x00000000000150d8      0xe9d drivers/video/sprdfb/libsprdfb.o
                                       0x5e35 (size before relaxing)
 .debug_str     0x0000000000015f75     0x1427 fs/ext4/libext4fs.o
                                       0x3165 (size before relaxing)
 .debug_str     0x000000000001739c      0x679 fs/fat/libfat.o
                                        0x954 (size before relaxing)
 .debug_str     0x0000000000017a15     0x19db fs/ubifs/libubifs.o
                                      0x19ba5 (size before relaxing)
 .debug_str     0x00000000000193f0     0x3853 fs/yaffs2/libyaffs2.o
                                       0xcd90 (size before relaxing)
 .debug_str     0x000000000001cc43      0x911 lib/libgeneric.o
                                       0x1cce (size before relaxing)
 .debug_str     0x000000000001d554      0x167 lib/lzo/liblzo.o
                                        0x2d1 (size before relaxing)
 .debug_str     0x000000000001d6bb     0x1151 nand_fdl/common/src/libfdlcommon.o
                                       0x20d5 (size before relaxing)
 .debug_str     0x000000000001e80c     0x2025 property/libproperty.o
                                       0x4738 (size before relaxing)
 .debug_str     0x0000000000020831       0xa4 board/spreadtrum/sp7731gea/libsp7731gea.o(openphone.o)
                                        0x25b (size before relaxing)
 .debug_str     0x00000000000208d5       0xa8 board/spreadtrum/sp7731gea/libsp7731gea.o(sprd_kp.o)
                                        0x1eb (size before relaxing)
 .debug_str     0x000000000002097d       0x20 board/spreadtrum/sp7731gea/libsp7731gea.o(pinmap-sp8830.o)
                                        0x117 (size before relaxing)
 .debug_str     0x000000000002099d       0x15 board/spreadtrum/sp7731gea/libsp7731gea.o(ldo_sleep.o)
                                        0x127 (size before relaxing)
 .debug_str     0x00000000000209b2       0xd8 arch/arm/cpu/armv7/sc8830/libsc8830.o(timer.o)
                                        0x1f0 (size before relaxing)
 .debug_str     0x0000000000020a8a       0x34 arch/arm/cpu/armv7/sc8830/libsc8830.o(reset.o)
                                        0x12d (size before relaxing)
 .debug_str     0x0000000000020abe      0x228 arch/arm/cpu/armv7/sc8830/libsc8830.o(ldo.o)
                                        0x647 (size before relaxing)
 .debug_str     0x0000000000020ce6      0x12f arch/arm/cpu/armv7/sc8830/libsc8830.o(chg_phy.o)
                                        0x2ae (size before relaxing)
 .debug_str     0x0000000000020e15       0x52 arch/arm/cpu/armv7/sc8830/libsc8830.o(mmu.o)
                                        0x140 (size before relaxing)
 .debug_str     0x0000000000020e67      0x151 arch/arm/cpu/armv7/sc8830/libsc8830.o(adc.o)
                                        0x26d (size before relaxing)
 .debug_str     0x0000000000020fb8       0xd4 arch/arm/cpu/armv7/sc8830/libsc8830.o(rtc-sprd.o)
                                        0x1ea (size before relaxing)
 .debug_str     0x000000000002108c      0x183 arch/arm/cpu/armv7/sc8830/libsc8830.o(sec_boot.o)
                                        0x2de (size before relaxing)
 .debug_str     0x000000000002120f       0x4b arch/arm/cpu/armv7/sc8830/libsc8830.o(glb.o)
                                        0x138 (size before relaxing)
 .debug_str     0x000000000002125a      0x13e arch/arm/cpu/armv7/sc8830/libsc8830.o(adi.o)
                                        0x278 (size before relaxing)
 .debug_str     0x0000000000021398      0x24e arch/arm/cpu/armv7/sc8830/libsc8830.o(gpio.o)
                                        0x44b (size before relaxing)
 .debug_str     0x00000000000215e6       0x37 arch/arm/cpu/armv7/sc8830/libsc8830.o(gpio_phy.o)
                                        0x1a9 (size before relaxing)
 .debug_str     0x000000000002161d       0x8a arch/arm/cpu/armv7/sc8830/libsc8830.o(check_reboot.o)
                                        0x207 (size before relaxing)
 .debug_str     0x00000000000216a7       0x9e arch/arm/cpu/armv7/sc8830/libsc8830.o(eic.o)
                                        0x245 (size before relaxing)
 .debug_str     0x0000000000021745       0x30 arch/arm/cpu/armv7/sc8830/libsc8830.o(vibrator_sc2713.o)
                                        0x127 (size before relaxing)
 .debug_str     0x0000000000021775       0x40 arch/arm/cpu/armv7/sc8830/libsc8830.o(otp-helper.o)
                                        0x127 (size before relaxing)
 .debug_str     0x00000000000217b5       0xb7 arch/arm/cpu/armv7/sc8830/libsc8830.o(efuse.o)
                                        0x1b2 (size before relaxing)
 .debug_str     0x000000000002186c       0xe3 arch/arm/cpu/armv7/sc8830/libsc8830.o(watchdog.o)
                                        0x1e7 (size before relaxing)
 .debug_str     0x000000000002194f       0xf5 arch/arm/cpu/armv7/sc8830/libsc8830.o(watchdog_phy_v3.o)
                                        0x21c (size before relaxing)
 .debug_str     0x0000000000021a44       0x2f arch/arm/cpu/armv7/sc8830/libsc8830.o(watchdog_hal.o)
                                        0x24d (size before relaxing)
 .debug_str     0x0000000000021a73       0x55 arch/arm/cpu/armv7/sc8830/libsc8830.o(chip_cfg.o)
                                        0x212 (size before relaxing)
 .debug_str     0x0000000000021ac8      0x2e5 arch/arm/cpu/armv7/sc8830/libsc8830.o(chip_phy_x30g.o)
                                        0x4b4 (size before relaxing)
 .debug_str     0x0000000000021dad       0x2b arch/arm/cpu/armv7/sc8830/libsc8830.o(Tshark_boot_cp.o)
                                        0x116 (size before relaxing)
 .debug_str     0x0000000000021dd8      0x180 arch/arm/cpu/armv7/sc8830/libsc8830.o(misc.o)
                                        0x2db (size before relaxing)
 .debug_str     0x0000000000021f58      0x717 arch/arm/cpu/armv7/sc8830/libsc8830.o(dcdc_cal_sc2713s.o)
                                        0x89d (size before relaxing)
 .debug_str     0x000000000002266f       0x32 /home/pillar/SC7731/sprd_project/sc7731_u-boot/build/sp7731gea-u-boot/arch/arm/lib/eabi_compat.o
                                        0x103 (size before relaxing)

.debug_loc      0x0000000000000000    0x74bc4
 .debug_loc     0x0000000000000000       0xed arch/arm/cpu/armv7/libarmv7.o
 .debug_loc     0x00000000000000ed      0x8b4 arch/arm/lib/libarm.o
 .debug_loc     0x00000000000009a1     0xe667 common/libcommon.o
 .debug_loc     0x000000000000f008     0x157b disk/libdisk.o
 .debug_loc     0x0000000000010583     0x11e7 drivers/i2c/libi2c.o
 .debug_loc     0x000000000001176a     0x5c2c drivers/mmc/libmmc.o
 .debug_loc     0x0000000000017396     0x1093 drivers/mtd/libmtd.o
 .debug_loc     0x0000000000018429     0x808e drivers/mtd/nand/libnand.o
 .debug_loc     0x00000000000204b7     0x846e drivers/mtd/ubi/libubi.o
 .debug_loc     0x0000000000028925      0x394 drivers/serial/libserial.o
 .debug_loc     0x0000000000028cb9     0x2a46 drivers/sound/codec/libcodec.o
 .debug_loc     0x000000000002b6ff      0xc24 drivers/sound/dai/libdai.o
 .debug_loc     0x000000000002c323      0x994 drivers/sound/libsound.o
 .debug_loc     0x000000000002ccb7      0x27f drivers/spi/libspi.o
 .debug_loc     0x000000000002cf36     0x88e9 drivers/usb/gadget/dwc_otg/libdwc_otg.o
 .debug_loc     0x000000000003581f     0x5f81 drivers/usb/gadget/libusb_gadget.o
 .debug_loc     0x000000000003b7a0     0x4303 drivers/video/sprdfb/dsi_1_21a/libsprdfb_dsi.o
 .debug_loc     0x000000000003faa3      0x3be drivers/video/sprdfb/lcd/liblcd.o
 .debug_loc     0x000000000003fe61     0x2203 drivers/video/sprdfb/libsprdfb.o
 .debug_loc     0x0000000000042064     0x59f4 fs/ext4/libext4fs.o
 .debug_loc     0x0000000000047a58     0x340f fs/fat/libfat.o
 .debug_loc     0x000000000004ae67     0xd7f4 fs/ubifs/libubifs.o
 .debug_loc     0x000000000005865b     0xc1ad fs/yaffs2/libyaffs2.o
 .debug_loc     0x0000000000064808     0x694f lib/libgeneric.o
 .debug_loc     0x000000000006b157      0xd13 lib/lzo/liblzo.o
 .debug_loc     0x000000000006be6a     0x12a3 nand_fdl/common/src/libfdlcommon.o
 .debug_loc     0x000000000006d10d     0x3824 property/libproperty.o
 .debug_loc     0x0000000000070931       0x73 board/spreadtrum/sp7731gea/libsp7731gea.o(openphone.o)
 .debug_loc     0x00000000000709a4      0x19f board/spreadtrum/sp7731gea/libsp7731gea.o(sprd_kp.o)
 .debug_loc     0x0000000000070b43       0x76 board/spreadtrum/sp7731gea/libsp7731gea.o(ldo_sleep.o)
 .debug_loc     0x0000000000070bb9      0x229 arch/arm/cpu/armv7/sc8830/libsc8830.o(timer.o)
 .debug_loc     0x0000000000070de2       0xa0 arch/arm/cpu/armv7/sc8830/libsc8830.o(reset.o)
 .debug_loc     0x0000000000070e82      0x378 arch/arm/cpu/armv7/sc8830/libsc8830.o(ldo.o)
 .debug_loc     0x00000000000711fa      0x210 arch/arm/cpu/armv7/sc8830/libsc8830.o(chg_phy.o)
 .debug_loc     0x000000000007140a       0x52 arch/arm/cpu/armv7/sc8830/libsc8830.o(mmu.o)
 .debug_loc     0x000000000007145c      0x1d5 arch/arm/cpu/armv7/sc8830/libsc8830.o(adc.o)
 .debug_loc     0x0000000000071631      0x537 arch/arm/cpu/armv7/sc8830/libsc8830.o(rtc-sprd.o)
 .debug_loc     0x0000000000071b68      0x24c arch/arm/cpu/armv7/sc8830/libsc8830.o(sec_boot.o)
 .debug_loc     0x0000000000071db4       0x68 arch/arm/cpu/armv7/sc8830/libsc8830.o(glb.o)
 .debug_loc     0x0000000000071e1c      0x34f arch/arm/cpu/armv7/sc8830/libsc8830.o(adi.o)
 .debug_loc     0x000000000007216b      0x683 arch/arm/cpu/armv7/sc8830/libsc8830.o(gpio.o)
 .debug_loc     0x00000000000727ee       0x13 arch/arm/cpu/armv7/sc8830/libsc8830.o(gpio_phy.o)
 .debug_loc     0x0000000000072801      0x1b4 arch/arm/cpu/armv7/sc8830/libsc8830.o(check_reboot.o)
 .debug_loc     0x00000000000729b5      0x4b3 arch/arm/cpu/armv7/sc8830/libsc8830.o(eic.o)
 .debug_loc     0x0000000000072e68       0x5e arch/arm/cpu/armv7/sc8830/libsc8830.o(vibrator_sc2713.o)
 .debug_loc     0x0000000000072ec6       0x33 arch/arm/cpu/armv7/sc8830/libsc8830.o(otp-helper.o)
 .debug_loc     0x0000000000072ef9      0x1a4 arch/arm/cpu/armv7/sc8830/libsc8830.o(efuse.o)
 .debug_loc     0x000000000007309d       0x66 arch/arm/cpu/armv7/sc8830/libsc8830.o(watchdog.o)
 .debug_loc     0x0000000000073103       0xea arch/arm/cpu/armv7/sc8830/libsc8830.o(watchdog_phy_v3.o)
 .debug_loc     0x00000000000731ed      0x167 arch/arm/cpu/armv7/sc8830/libsc8830.o(watchdog_hal.o)
 .debug_loc     0x0000000000073354       0x26 arch/arm/cpu/armv7/sc8830/libsc8830.o(chip_cfg.o)
 .debug_loc     0x000000000007337a      0x400 arch/arm/cpu/armv7/sc8830/libsc8830.o(chip_phy_x30g.o)
 .debug_loc     0x000000000007377a       0x40 arch/arm/cpu/armv7/sc8830/libsc8830.o(Tshark_boot_cp.o)
 .debug_loc     0x00000000000737ba       0xe1 arch/arm/cpu/armv7/sc8830/libsc8830.o(misc.o)
 .debug_loc     0x000000000007389b     0x12eb arch/arm/cpu/armv7/sc8830/libsc8830.o(dcdc_cal_sc2713s.o)
 .debug_loc     0x0000000000074b86       0x3e /home/pillar/SC7731/sprd_project/sc7731_u-boot/build/sp7731gea-u-boot/arch/arm/lib/eabi_compat.o

.debug_ranges   0x0000000000000000     0x95e0
 .debug_ranges  0x0000000000000000       0xc0 arch/arm/lib/libarm.o
 .debug_ranges  0x00000000000000c0      0xd88 common/libcommon.o
 .debug_ranges  0x0000000000000e48      0x110 disk/libdisk.o
 .debug_ranges  0x0000000000000f58       0xd0 drivers/i2c/libi2c.o
 .debug_ranges  0x0000000000001028      0x840 drivers/mmc/libmmc.o
 .debug_ranges  0x0000000000001868      0x210 drivers/mtd/libmtd.o
 .debug_ranges  0x0000000000001a78      0xa48 drivers/mtd/nand/libnand.o
 .debug_ranges  0x00000000000024c0      0xaa0 drivers/mtd/ubi/libubi.o
 .debug_ranges  0x0000000000002f60       0x18 drivers/serial/libserial.o
 .debug_ranges  0x0000000000002f78      0x528 drivers/sound/codec/libcodec.o
 .debug_ranges  0x00000000000034a0      0x150 drivers/sound/dai/libdai.o
 .debug_ranges  0x00000000000035f0       0xd0 drivers/sound/libsound.o
 .debug_ranges  0x00000000000036c0      0x738 drivers/usb/gadget/dwc_otg/libdwc_otg.o
 .debug_ranges  0x0000000000003df8      0x918 drivers/usb/gadget/libusb_gadget.o
 .debug_ranges  0x0000000000004710       0x30 drivers/video/sprdfb/dsi_1_21a/libsprdfb_dsi.o
 .debug_ranges  0x0000000000004740       0x48 drivers/video/sprdfb/lcd/liblcd.o
 .debug_ranges  0x0000000000004788      0x510 drivers/video/sprdfb/libsprdfb.o
 .debug_ranges  0x0000000000004c98      0x360 fs/ext4/libext4fs.o
 .debug_ranges  0x0000000000004ff8      0x4c0 fs/fat/libfat.o
 .debug_ranges  0x00000000000054b8     0x2060 fs/ubifs/libubifs.o
 .debug_ranges  0x0000000000007518     0x1080 fs/yaffs2/libyaffs2.o
 .debug_ranges  0x0000000000008598      0x318 lib/libgeneric.o
 .debug_ranges  0x00000000000088b0      0x230 lib/lzo/liblzo.o
 .debug_ranges  0x0000000000008ae0       0x90 nand_fdl/common/src/libfdlcommon.o
 .debug_ranges  0x0000000000008b70      0x1f0 property/libproperty.o
 .debug_ranges  0x0000000000008d60       0x90 arch/arm/cpu/armv7/sc8830/libsc8830.o(timer.o)
 .debug_ranges  0x0000000000008df0       0x30 arch/arm/cpu/armv7/sc8830/libsc8830.o(ldo.o)
 .debug_ranges  0x0000000000008e20       0x48 arch/arm/cpu/armv7/sc8830/libsc8830.o(chg_phy.o)
 .debug_ranges  0x0000000000008e68       0x30 arch/arm/cpu/armv7/sc8830/libsc8830.o(adc.o)
 .debug_ranges  0x0000000000008e98       0x60 arch/arm/cpu/armv7/sc8830/libsc8830.o(sec_boot.o)
 .debug_ranges  0x0000000000008ef8      0x210 arch/arm/cpu/armv7/sc8830/libsc8830.o(gpio.o)
 .debug_ranges  0x0000000000009108       0x18 arch/arm/cpu/armv7/sc8830/libsc8830.o(check_reboot.o)
 .debug_ranges  0x0000000000009120      0x100 arch/arm/cpu/armv7/sc8830/libsc8830.o(eic.o)
 .debug_ranges  0x0000000000009220       0x60 arch/arm/cpu/armv7/sc8830/libsc8830.o(vibrator_sc2713.o)
 .debug_ranges  0x0000000000009280       0x48 arch/arm/cpu/armv7/sc8830/libsc8830.o(efuse.o)
 .debug_ranges  0x00000000000092c8       0x18 arch/arm/cpu/armv7/sc8830/libsc8830.o(watchdog_phy_v3.o)
 .debug_ranges  0x00000000000092e0       0x78 arch/arm/cpu/armv7/sc8830/libsc8830.o(chip_phy_x30g.o)
 .debug_ranges  0x0000000000009358       0x38 arch/arm/cpu/armv7/sc8830/libsc8830.o(misc.o)
 .debug_ranges  0x0000000000009390      0x250 arch/arm/cpu/armv7/sc8830/libsc8830.o(dcdc_cal_sc2713s.o)
